(lp0
(F409.7434416053893
I25
tp1
a(F703.8037739253251
I37
tp2
a(F443.3767219415968
I23
tp3
a(F394.94988629268835
I53
tp4
a(F297.35999854768
I26
tp5
a(F492.06516073495806
I26
tp6
a(F432.7575137993638
I44
tp7
a(F723.7937883071866
I25
tp8
a(F766.4381063820824
I25
tp9
a(F687.3626553702377
I25
tp10
a(F676.789417114086
I25
tp11
a(F681.1238182943192
I25
tp12
a(F664.9489281511351
I25
tp13
a(F792.1672507874375
I25
tp14
a(F794.9770889558013
I25
tp15
a(F780.8365037359277
I25
tp16
a(F801.5651035872971
I25
tp17
a(F773.696386771138
I25
tp18
a(F785.9460182279319
I37
tp19
a(F422.21167834181574
I6
tp20
a(F809.2253044480717
I37
tp21
a(F438.2376739417029
I25
tp22
a(F384.61806358216006
I25
tp23
a(F410.14123515258933
I25
tp24
a(F639.5303231460362
I25
tp25
a(F382.299620102301
I25
tp26
a(F812.5640311129072
I37
tp27
a(F800.6645161320528
I53
tp28
a(F610.7135834297854
I37
tp29
a(F740.0642013411251
I53
tp30
a(F692.0562015501033
I53
tp31
a(F712.9082934408751
I53
tp32
a(F650.8786006822181
I53
tp33
a(F589.3355098508159
I37
tp34
a(F716.4681450769172
I53
tp35
a(F641.6461935966569
I53
tp36
a(F622.919743994079
I53
tp37
a(F583.2402355450995
I53
tp38
a(F587.8227082019215
I53
tp39
a(F499.3900516705101
I53
tp40
a(F510.7445629230377
I53
tp41
a(F517.2894836814729
I53
tp42
a(F485.0127189446091
I53
tp43
a(F422.41684352901774
I37
tp44
a(F478.9714074875869
I53
tp45
a(F512.5775203614743
I53
tp46
a(F454.4207163202188
I53
tp47
a(F446.7488505707649
I53
tp48
a(F498.9859165656619
I53
tp49
a(F465.83901295543785
I53
tp50
a(F425.44242776743465
I23
tp51
a(F280.83029883779335
I26
tp52
a(F320.79869732909145
I26
tp53
a(F435.8200469753955
I23
tp54
a(F465.59497360258644
I23
tp55
a(F340.65525287559797
I53
tp56
a(F433.2178205629674
I53
tp57
a(F442.2476370917678
I26
tp58
a(F372.258047256673
I26
tp59
a(F515.193658529088
I26
tp60
a(F254.7803715994061
I26
tp61
a(F332.63746815526866
I53
tp62
a(F451.0935694633329
I26
tp63
a(F341.65898297873116
I53
tp64
a(F537.5128554921703
I26
tp65
a(F499.9449358182538
I26
tp66
a(F356.4493254246197
I53
tp67
a(F418.2344306121344
I53
tp68
a(F414.00936541346346
I26
tp69
a(F429.59711237231727
I53
tp70
a(F437.20162445359506
I44
tp71
a(F335.7355301121216
I44
tp72
a(F373.9702849829702
I53
tp73
a(F375.7439133100907
I45
tp74
a(F440.980281120215
I53
tp75
a(F456.22378295917025
I45
tp76
a(F373.8076086341748
I54
tp77
a(F418.60142524227757
I54
tp78
a(F407.01433479763455
I72
tp79
a(F394.10215865770573
I45
tp80
a(F394.9675117079591
I72
tp81
a(F372.3165529306127
I72
tp82
a(F467.3386654236139
I45
tp83
a(F415.5660711963401
I45
tp84
a(F442.057079825618
I45
tp85
a(F474.7499404135777
I45
tp86
a(F496.62082296248917
I45
tp87
a(F511.3968919350425
I45
tp88
a(F515.3889266414061
I45
tp89
a(F475.9126624537333
I45
tp90
a(F479.2502984412476
I53
tp91
a(F678.8533954902417
I6
tp92
a(F656.7006115280028
I6
tp93
a(F646.9951433982917
I6
tp94
a(F696.0457841504808
I6
tp95
a(F649.0572642460568
I6
tp96
a(F658.0047878775277
I6
tp97
a(F663.3975002421863
I6
tp98
a(F778.953872958067
I25
tp99
a(F758.9891933470899
I6
tp100
a(F701.0884806491908
I6
tp101
a(F658.1192580214872
I25
tp102
a(F784.5594991355887
I25
tp103
a(F799.6149287094252
I25
tp104
a(F804.5928606481858
I37
tp105
a(F412.021839852207
I25
tp106
a(F635.885299909626
I25
tp107
a(F388.2781850819342
I25
tp108
a(F807.7128259522478
I37
tp109
a(F417.0902196548619
I25
tp110
a(F364.37106412232066
I25
tp111
a(F604.6628168855847
I37
tp112
a(F807.7231996329236
I37
tp113
a(F369.17410387821263
I25
tp114
a(F623.4028758290248
I37
tp115
a(F805.3772423918589
I53
tp116
a(F610.0459826299046
I37
tp117
a(F773.5093254740569
I53
tp118
a(F583.6055260854331
I37
tp119
a(F637.5023302895395
I37
tp120
a(F611.3472823609112
I37
tp121
a(F719.9176390958394
I53
tp122
a(F624.8340937022707
I37
tp123
a(F700.1003784203199
I53
tp124
a(F619.2026264614146
I37
tp125
a(F590.3114672139939
I53
tp126
a(F614.9265601253388
I53
tp127
a(F602.6021082399795
I53
tp128
a(F600.3871899146868
I53
tp129
a(F585.567008252049
I53
tp130
a(F597.8065267126365
I53
tp131
a(F522.7229888114829
I53
tp132
a(F512.6863788243352
I53
tp133
a(F525.4912054586642
I53
tp134
a(F508.74454003399387
I53
tp135
a(F505.3624986140266
I53
tp136
a(F524.9062207249999
I53
tp137
a(F526.1187362183651
I53
tp138
a(F523.3786121971475
I53
tp139
a(F500.83702477353813
I53
tp140
a(F519.9866118120758
I53
tp141
a(F509.8019973124884
I53
tp142
a(F506.42479842894977
I53
tp143
a(F516.056708286996
I53
tp144
a(F512.65829376692
I53
tp145
a(F381.2407565595232
I53
tp146
a(F428.30037957262294
I53
tp147
a(F408.1120272289291
I53
tp148
a(F456.30566629280884
I53
tp149
a(F260.5723952721546
I26
tp150
a(F282.4429219562622
I26
tp151
a(F452.76068938359725
I53
tp152
a(F408.79838109064474
I23
tp153
a(F446.10986224312853
I23
tp154
a(F305.2997914661641
I26
tp155
a(F245.6370018417639
I26
tp156
a(F440.1045612082088
I23
tp157
a(F313.5693200609762
I53
tp158
a(F426.2260386266877
I23
tp159
a(F348.85761662074736
I26
tp160
a(F367.8981453076448
I26
tp161
a(F414.3983640075379
I26
tp162
a(F420.8064530310524
I53
tp163
a(F241.15142775013473
I34
tp164
a(F394.562872463275
I26
tp165
a(F264.60683297402244
I34
tp166
a(F481.6530241377013
I26
tp167
a(F502.25427169666204
I26
tp168
a(F420.96911213012083
I26
tp169
a(F294.9237105488612
I44
tp170
a(F421.34231504651785
I53
tp171
a(F288.59680763046686
I44
tp172
a(F418.1880091413008
I44
tp173
a(F357.4460654382239
I53
tp174
a(F315.4337116579249
I45
tp175
a(F414.20549069294424
I53
tp176
a(F349.74855565117014
I45
tp177
a(F409.0590257104888
I53
tp178
a(F433.31307509580404
I44
tp179
a(F427.1077778350647
I44
tp180
a(F381.54367224866104
I72
tp181
a(F440.6031487056118
I45
tp182
a(F370.50464096198664
I54
tp183
a(F366.3384609048722
I57
tp184
a(F376.7286118465843
I45
tp185
a(F407.30968264971307
I45
tp186
a(F440.908881175727
I45
tp187
a(F447.37245367160904
I45
tp188
a(F497.1080370053848
I45
tp189
a(F493.2519513878178
I45
tp190
a(F672.2531469743759
I6
tp191
a(F690.0972367642477
I6
tp192
a(F660.4847391384425
I6
tp193
a(F657.9159721792564
I6
tp194
a(F755.8838733524723
I25
tp195
a(F756.4022729183456
I25
tp196
a(F747.0077946823834
I25
tp197
a(F803.03171631546
I37
tp198
a(F621.5403026341241
I25
tp199
a(F607.1327925616409
I37
tp200
a(F783.5482336388926
I37
tp201
a(F388.6798756263415
I25
tp202
a(F608.3907028788002
I37
tp203
a(F804.0881450953381
I53
tp204
a(F609.4628627448748
I37
tp205
a(F343.2830066106661
I25
tp206
a(F806.4491628603556
I53
tp207
a(F784.178464750707
I53
tp208
a(F741.4146873347858
I53
tp209
a(F621.5097504034255
I37
tp210
a(F672.8503731799426
I53
tp211
a(F666.2063142416076
I53
tp212
a(F685.138890129719
I53
tp213
a(F411.07635984290886
I37
tp214
a(F285.1167132796025
I23
tp215
a(F260.40496356474614
I26
tp216
a(F385.42511752903494
I23
tp217
a(F216.944020635741
I26
tp218
a(F391.1450293498585
I26
tp219
a(F426.31264501855094
I23
tp220
a(F314.2481707401316
I53
tp221
a(F370.7341333021288
I26
tp222
a(F411.5243790341768
I53
tp223
a(F476.669298213949
I23
tp224
a(F225.61186219019834
I31
tp225
a(F445.45765043410427
I26
tp226
a(F474.2775070052679
I26
tp227
a(F397.28839003609033
I53
tp228
a(F469.3988861597541
I26
tp229
a(F300.71698583513376
I53
tp230
a(F410.471024161081
I53
tp231
a(F358.1199518684494
I53
tp232
a(F354.9143401913262
I57
tp233
a(F462.577673483437
I45
tp234
a(F454.093682566706
I45
tp235
a(F484.6094788005097
I45
tp236
a(F462.33663078135004
I45
tp237
a(F759.0681508427393
I6
tp238
a(F719.3927639625332
I6
tp239
a(F766.8126443257984
I25
tp240
a(F632.1877418009414
I6
tp241
a(F790.7610100269319
I25
tp242
a(F615.6735650531
I25
tp243
a(F785.5197978595488
I37
tp244
a(F381.7790862194153
I25
tp245
a(F373.80701232905517
I25
tp246
a(F359.1114093029723
I25
tp247
a(F761.4486874843309
I37
tp248
a(F763.0270889789173
I37
tp249
a(F361.5188662567237
I25
tp250
a(F324.08250583841124
I25
tp251
a(F613.1484398704595
I37
tp252
a(F711.3529068452565
I53
tp253
a(F640.7669956203235
I37
tp254
a(F647.9609804114718
I53
tp255
a(F660.8911725261762
I53
tp256
a(F373.66339443426347
I37
tp257
a(F313.1177206724933
I37
tp258
a(F366.1494805475498
I37
tp259
a(F330.43145246853277
I53
tp260
a(F297.7094735575895
I26
tp261
a(F321.3585495633997
I23
tp262
a(F392.9730611830377
I53
tp263
a(F366.9693503391495
I23
tp264
a(F405.9221355693221
I23
tp265
a(F425.00874821502487
I53
tp266
a(F176.99185147199265
I34
tp267
a(F389.5543072045052
I53
tp268
a(F282.855025703198
I53
tp269
a(F423.43158592327944
I26
tp270
a(F389.18126390146483
I26
tp271
a(F416.8639705672809
I26
tp272
a(F387.301003632915
I53
tp273
a(F380.227024266661
I26
tp274
a(F303.1942397429962
I53
tp275
a(F386.24306941844503
I53
tp276
a(F198.26989724338122
I44
tp277
a(F310.64833611115614
I53
tp278
a(F399.2013168794526
I53
tp279
a(F325.31787236683647
I53
tp280
a(F261.0420792943778
I44
tp281
a(F339.3651358811511
I53
tp282
a(F377.7337357246718
I53
tp283
a(F293.7781404887974
I44
tp284
a(F305.1694474389273
I45
tp285
a(F415.77164501606546
I44
tp286
a(F315.98247632338877
I45
tp287
a(F357.4920865829928
I54
tp288
a(F338.54760960234375
I45
tp289
a(F363.6227043645915
I45
tp290
a(F410.5937495569667
I45
tp291
a(F467.44765136663193
I45
tp292
a(F473.47369049427357
I45
tp293
a(F477.1289391183271
I45
tp294
a(F479.23200237256253
I45
tp295
a(F461.8821581964173
I45
tp296
a(F460.84141719616963
I45
tp297
a(F461.86777749068
I45
tp298
a(F482.334730901961
I45
tp299
a(F464.46814583066305
I45
tp300
a(F481.285026945012
I45
tp301
a(F467.42983347392465
I45
tp302
a(F479.52963536300246
I45
tp303
a(F470.7102351961074
I45
tp304
a(F339.787073299799
I53
tp305
a(F653.4623305997391
I6
tp306
a(F751.3131923453121
I6
tp307
a(F786.213722041211
I25
tp308
a(F593.95151745589
I25
tp309
a(F778.4508226835102
I37
tp310
a(F338.4068074225509
I25
tp311
a(F368.3667120423695
I25
tp312
a(F348.8390058893025
I25
tp313
a(F325.88633923675735
I25
tp314
a(F301.01053956664566
I25
tp315
a(F648.8978342631534
I37
tp316
a(F318.19454003098065
I27
tp317
a(F682.9623239857538
I53
tp318
a(F315.7810177742319
I37
tp319
a(F359.563136539448
I37
tp320
a(F367.73481202815077
I37
tp321
a(F416.1826272062732
I53
tp322
a(F231.93705089702223
I23
tp323
a(F255.5390907258477
I23
tp324
a(F183.89951575083577
I26
tp325
a(F391.1319025657657
I53
tp326
a(F175.6592165975921
I31
tp327
a(F374.21251057479446
I23
tp328
a(F374.1029240459522
I53
tp329
a(F289.77095504615437
I53
tp330
a(F417.24815849467086
I26
tp331
a(F363.1502645639454
I53
tp332
a(F275.0653213103824
I53
tp333
a(F402.9216984709969
I26
tp334
a(F380.2852575104256
I26
tp335
a(F282.30608049111703
I53
tp336
a(F150.68593732801654
I34
tp337
a(F267.09538363800635
I53
tp338
a(F294.1207146140823
I53
tp339
a(F251.86338519979589
I53
tp340
a(F381.97641541161676
I53
tp341
a(F374.6107061293203
I53
tp342
a(F385.9325942766411
I53
tp343
a(F365.6911017931774
I53
tp344
a(F386.4242647398013
I53
tp345
a(F331.9105015522832
I53
tp346
a(F385.1177902664275
I53
tp347
a(F359.9416395621768
I53
tp348
a(F383.31184083602017
I53
tp349
a(F357.1266649334671
I53
tp350
a(F383.9735829190545
I53
tp351
a(F383.4627913888074
I53
tp352
a(F353.51265592775945
I53
tp353
a(F380.6242091547883
I53
tp354
a(F350.6753971425689
I53
tp355
a(F342.97461343182243
I53
tp356
a(F342.70832104910875
I53
tp357
a(F227.74301270833126
I34
tp358
a(F308.44317601341805
I53
tp359
a(F379.77413045481126
I53
tp360
a(F341.32633248155
I53
tp361
a(F378.1910443536516
I53
tp362
a(F342.1245197683265
I53
tp363
a(F387.2044020428321
I26
tp364
a(F312.8078874950222
I53
tp365
a(F350.37575609779066
I53
tp366
a(F346.66059893373875
I53
tp367
a(F365.20276063373467
I53
tp368
a(F357.72874801796524
I53
tp369
a(F354.000363771707
I53
tp370
a(F361.37283309998287
I53
tp371
a(F251.2437166313179
I44
tp372
a(F325.95198293238235
I45
tp373
a(F270.2808246074485
I45
tp374
a(F305.1460296110621
I45
tp375
a(F298.4729450671462
I45
tp376
a(F277.46590829346064
I45
tp377
a(F297.6668319232652
I45
tp378
a(F282.76521384124584
I45
tp379
a(F691.0793632781833
I6
tp380
a(F597.4135240492113
I6
tp381
a(F773.273896560283
I25
tp382
a(F560.9825911987077
I25
tp383
a(F557.0356672615828
I25
tp384
a(F589.5025682884616
I25
tp385
a(F586.0818777286852
I27
tp386
a(F730.7942261926972
I37
tp387
a(F304.7595008258057
I25
tp388
a(F343.2779331613799
I25
tp389
a(F695.5988862201614
I37
tp390
a(F619.349231230011
I37
tp391
a(F278.58352026435534
I27
tp392
a(F334.4212809186518
I27
tp393
a(F266.34060183489316
I28
tp394
a(F277.40281541128223
I37
tp395
a(F198.3287045560676
I26
tp396
a(F399.0658386236184
I53
tp397
a(F291.7782982441456
I37
tp398
a(F280.37265371026064
I53
tp399
a(F141.29324606036135
I26
tp400
a(F354.3030570913458
I23
tp401
a(F143.95334132064576
I34
tp402
a(F382.691281516349
I26
tp403
a(F278.8844031292311
I53
tp404
a(F265.14221861632484
I53
tp405
a(F295.0835296311007
I53
tp406
a(F350.3111304893268
I26
tp407
a(F279.7447825561203
I53
tp408
a(F318.23895537333703
I53
tp409
a(F268.53466642533147
I53
tp410
a(F244.75355165726606
I53
tp411
a(F180.52933236199064
I44
tp412
a(F251.7768605973638
I53
tp413
a(F237.27298870968443
I53
tp414
a(F320.29384239162243
I53
tp415
a(F191.02559112542247
I44
tp416
a(F298.8213513488567
I53
tp417
a(F181.62533272260094
I53
tp418
a(F174.27508388127828
I53
tp419
a(F224.1512383759784
I44
tp420
a(F214.9349639290928
I53
tp421
a(F339.00090527062105
I44
tp422
a(F255.769825036224
I54
tp423
a(F197.60077049430586
I53
tp424
a(F233.43197615704008
I54
tp425
a(F313.0545348149751
I45
tp426
a(F253.15649511187078
I45
tp427
a(F292.19811080727493
I45
tp428
a(F271.316684602546
I45
tp429
a(F283.26453650753757
I45
tp430
a(F248.21805211572152
I53
tp431
a(F650.3723693656478
I6
tp432
a(F592.5536484529525
I6
tp433
a(F729.5738147834275
I6
tp434
a(F559.4985617722272
I6
tp435
a(F581.7165498668807
I6
tp436
a(F764.2952698172845
I25
tp437
a(F525.733228577942
I25
tp438
a(F753.8693640666804
I37
tp439
a(F300.9949160594168
I25
tp440
a(F330.3104522393416
I25
tp441
a(F591.7832531861479
I37
tp442
a(F274.90959762937496
I25
tp443
a(F598.6260905445072
I37
tp444
a(F687.8518188357597
I37
tp445
a(F332.8506359419979
I25
tp446
a(F641.3865972733626
I37
tp447
a(F245.5528403754402
I25
tp448
a(F251.5486983221145
I28
tp449
a(F357.5709057542487
I37
tp450
a(F243.0530365681642
I37
tp451
a(F285.9241803913091
I37
tp452
a(F167.87067845583942
I23
tp453
a(F210.41572163361496
I23
tp454
a(F147.0697516660091
I26
tp455
a(F259.8597455825282
I23
tp456
a(F300.4955314907282
I23
tp457
a(F135.89722833520923
I31
tp458
a(F372.3223330164355
I53
tp459
a(F370.20679132197375
I26
tp460
a(F128.19399086043214
I34
tp461
a(F380.10007188641407
I26
tp462
a(F351.44915209382515
I53
tp463
a(F353.8217390775796
I26
tp464
a(F256.1595429864635
I53
tp465
a(F327.0849517003856
I53
tp466
a(F295.6707908918484
I53
tp467
a(F271.08770612749794
I53
tp468
a(F230.05092880460546
I53
tp469
a(F139.50851625190526
I44
tp470
a(F295.0532434725402
I53
tp471
a(F289.44246329142527
I53
tp472
a(F260.66473957007105
I53
tp473
a(F268.491639047415
I53
tp474
a(F229.74870398478657
I53
tp475
a(F247.2323948070974
I53
tp476
a(F354.8540491228906
I44
tp477
a(F246.9626452668302
I53
tp478
a(F186.32448245492856
I44
tp479
a(F230.93265867104216
I53
tp480
a(F163.26335798894735
I44
tp481
a(F169.3427994232638
I45
tp482
a(F269.7354290490255
I53
tp483
a(F193.86396856863573
I53
tp484
a(F180.67561676048706
I53
tp485
a(F232.85041451063523
I53
tp486
a(F185.0176585860535
I53
tp487
a(F194.43937745448792
I45
tp488
a(F208.96821482295113
I53
tp489
a(F220.3517683498472
I45
tp490
a(F244.43091232495237
I45
tp491
a(F259.6217838546343
I53
tp492
a(F696.7315790621508
I6
tp493
a(F587.6408409915543
I6
tp494
a(F560.5100041516451
I6
tp495
a(F526.6940127216748
I25
tp496
a(F759.2515058393323
I37
tp497
a(F730.9976442068786
I37
tp498
a(F709.4029579949058
I37
tp499
a(F569.1009974257131
I37
tp500
a(F286.9353310817411
I25
tp501
a(F635.893911181805
I37
tp502
a(F595.5028204946323
I37
tp503
a(F243.80966925172814
I25
tp504
a(F343.3104372184165
I37
tp505
a(F238.3167543320353
I28
tp506
a(F347.5593459507929
I37
tp507
a(F338.51608598569356
I37
tp508
a(F358.6355620324173
I37
tp509
a(F191.50093700714953
I23
tp510
a(F169.52181928315002
I23
tp511
a(F146.38254421311453
I23
tp512
a(F126.40422557115377
I23
tp513
a(F376.85631646326846
I37
tp514
a(F265.46004510171247
I37
tp515
a(F117.89344257802291
I31
tp516
a(F258.5635106963183
I53
tp517
a(F261.77836854649854
I53
tp518
a(F288.36349223011786
I53
tp519
a(F263.1867620769799
I53
tp520
a(F263.5022853308529
I53
tp521
a(F267.6126378102499
I53
tp522
a(F310.6468900861204
I53
tp523
a(F128.56913199058408
I40
tp524
a(F253.6639150623754
I53
tp525
a(F249.6410142487856
I53
tp526
a(F255.33587074510783
I53
tp527
a(F258.6187737140705
I53
tp528
a(F246.54196051133374
I53
tp529
a(F260.36987899633255
I53
tp530
a(F260.55557501838723
I53
tp531
a(F241.9199695878156
I53
tp532
a(F262.40386836165817
I53
tp533
a(F262.70996158455813
I53
tp534
a(F239.9809851912639
I53
tp535
a(F261.8711971862503
I53
tp536
a(F262.3063818422312
I53
tp537
a(F260.3699750657898
I53
tp538
a(F233.8488306692373
I53
tp539
a(F321.5655621206379
I26
tp540
a(F259.10716685526086
I53
tp541
a(F232.53145415915156
I53
tp542
a(F257.3398339378543
I53
tp543
a(F167.56090335505485
I44
tp544
a(F251.61503225476173
I53
tp545
a(F247.84617016319774
I53
tp546
a(F243.94054852109352
I53
tp547
a(F237.5958587416086
I53
tp548
a(F241.21790849056964
I53
tp549
a(F147.85229363442866
I45
tp550
a(F148.72450956731578
I45
tp551
a(F288.54996231397473
I44
tp552
a(F162.55749199774624
I45
tp553
a(F287.63928893422315
I45
tp554
a(F199.63069487388634
I45
tp555
a(F169.02193631750063
I45
tp556
a(F261.17403981411906
I45
tp557
a(F192.08919211519296
I45
tp558
a(F175.64247635236902
I51
tp559
a(F212.31340349462656
I45
tp560
a(F185.76046191808047
I51
tp561
a(F220.0547511531446
I51
tp562
a(F197.26434336853032
I62
tp563
a(F213.94401804060485
I62
tp564
a(F554.6290454594166
I6
tp565
a(F688.028058146049
I6
tp566
a(F535.6879341595278
I6
tp567
a(F705.653585606638
I6
tp568
a(F717.1809529403466
I6
tp569
a(F747.7016367453423
I25
tp570
a(F766.2773392319322
I25
tp571
a(F760.747265431854
I25
tp572
a(F735.6029896049313
I25
tp573
a(F493.9339259769304
I25
tp574
a(F741.8027634223237
I37
tp575
a(F519.1771253586867
I25
tp576
a(F505.2074197885561
I25
tp577
a(F730.663547537061
I37
tp578
a(F533.0573549861995
I25
tp579
a(F683.3863962084533
I37
tp580
a(F537.1126279865247
I37
tp581
a(F332.35181075365546
I25
tp582
a(F567.9479103051128
I37
tp583
a(F308.52820164474343
I25
tp584
a(F298.6130611835361
I25
tp585
a(F330.3181352337429
I27
tp586
a(F250.59413361330013
I25
tp587
a(F231.415094863446
I25
tp588
a(F343.5383209068678
I37
tp589
a(F215.8599858030889
I25
tp590
a(F345.84176867848873
I37
tp591
a(F343.5262364744075
I37
tp592
a(F220.3438225009717
I37
tp593
a(F218.48608758004983
I23
tp594
a(F194.57092747235396
I37
tp595
a(F119.46913177685178
I23
tp596
a(F273.5283529203966
I23
tp597
a(F108.94471579078972
I26
tp598
a(F321.7510896746872
I23
tp599
a(F367.5855403153902
I53
tp600
a(F244.868441906714
I38
tp601
a(F332.38516870491026
I23
tp602
a(F367.0235099089591
I53
tp603
a(F328.3987498594993
I26
tp604
a(F315.9312203543603
I26
tp605
a(F339.374006648992
I53
tp606
a(F329.81885580908715
I26
tp607
a(F324.46671139343874
I44
tp608
a(F148.43398375188403
I44
tp609
a(F222.86431293189617
I45
tp610
a(F240.85452237813573
I45
tp611
a(F276.1641865820666
I45
tp612
a(F724.5426646716255
I141
tp613
a(F720.7652811459911
I141
tp614
a(F718.2921491036294
I141
tp615
a(F735.008214818713
I141
tp616
a(F716.1226610651219
I141
tp617
a(F736.4081822970523
I141
tp618
a(F739.0888827105879
I141
tp619
a(F716.495161236272
I141
tp620
a(F739.2948000266099
I141
tp621
a(F717.9395860502809
I141
tp622
a(F740.7514673960777
I141
tp623
a(F718.18108747728
I141
tp624
a(F741.0001088052837
I141
tp625
a(F742.4988057952042
I141
tp626
a(F727.6152763721008
I141
tp627
a(F744.1683953295144
I141
tp628
a(F730.416972455039
I141
tp629
a(F745.8858535851081
I141
tp630
a(F746.3043155297878
I141
tp631
a(F733.6932613560685
I141
tp632
a(F745.4259688307783
I141
tp633
a(F739.3650171187377
I141
tp634
a(F743.2774228041656
I141
tp635
a(F747.2336652744315
I141
tp636
a(F551.7294059244036
I6
tp637
a(F526.2639154715079
I6
tp638
a(F597.21179770348
I6
tp639
a(F651.8915208368294
I6
tp640
a(F713.9969866330504
I6
tp641
a(F513.7478528173984
I6
tp642
a(F766.6135095208157
I6
tp643
a(F611.8404492058419
I6
tp644
a(F503.7785876480685
I6
tp645
a(F726.8396830889278
I6
tp646
a(F741.8107282215841
I6
tp647
a(F511.4508950211223
I6
tp648
a(F738.5315855974862
I25
tp649
a(F478.25247445214944
I6
tp650
a(F475.6604400414544
I6
tp651
a(F737.3637232958846
I25
tp652
a(F717.0922115670085
I25
tp653
a(F663.6065659377613
I37
tp654
a(F636.8293649492568
I37
tp655
a(F593.0466340474385
I37
tp656
a(F234.32271369868408
I25
tp657
a(F313.41739639973554
I27
tp658
a(F159.7315150780711
I23
tp659
a(F191.4870194403974
I23
tp660
a(F235.14976805111894
I23
tp661
a(F106.83576782236412
I23
tp662
a(F285.01068403202174
I23
tp663
a(F227.84441551688238
I37
tp664
a(F95.4962405495163
I26
tp665
a(F371.93912242856527
I53
tp666
a(F85.71472161245418
I26
tp667
a(F296.9885653641352
I26
tp668
a(F284.39315264904593
I53
tp669
a(F306.3973674976138
I26
tp670
a(F136.71022324563145
I44
tp671
a(F156.6047834784495
I44
tp672
a(F197.39970583835597
I44
tp673
a(F222.9087649595671
I44
tp674
a(F241.93241695312685
I45
tp675
a(F713.9594374899996
I141
tp676
a(F726.6422467847993
I141
tp677
a(F708.5235459641049
I141
tp678
a(F738.6885738225841
I141
tp679
a(F704.0677071298961
I141
tp680
a(F572.5066412725704
I141
tp681
a(F537.6023492964644
I142
tp682
a(F682.4854164807628
I141
tp683
a(F610.8288104388471
I6
tp684
a(F506.56506467331576
I104
tp685
a(F525.9616485833574
I6
tp686
a(F508.343707877657
I6
tp687
a(F758.6237936739443
I141
tp688
a(F470.5771478703319
I6
tp689
a(F728.1831921455349
I6
tp690
a(F720.0591188925637
I25
tp691
a(F712.9365778448677
I25
tp692
a(F699.4046793200207
I37
tp693
a(F475.40269578048355
I25
tp694
a(F484.7511412791938
I25
tp695
a(F684.5056059115127
I37
tp696
a(F656.8389547384708
I37
tp697
a(F624.2025983738134
I37
tp698
a(F518.6837841173452
I27
tp699
a(F554.1386189129388
I37
tp700
a(F267.5564880785126
I25
tp701
a(F301.3101813937476
I27
tp702
a(F318.87394727509053
I28
tp703
a(F157.4706844730387
I23
tp704
a(F330.8104524201611
I37
tp705
a(F218.7018135359154
I23
tp706
a(F369.48011341870455
I37
tp707
a(F89.29359651373748
I23
tp708
a(F361.51484216876497
I37
tp709
a(F203.6426754711581
I37
tp710
a(F282.33059079034496
I23
tp711
a(F285.2923556677558
I23
tp712
a(F345.2035875587777
I53
tp713
a(F103.03571160670536
I34
tp714
a(F242.61855884919095
I53
tp715
a(F264.0858483926804
I53
tp716
a(F287.702059633088
I26
tp717
a(F358.22073308487387
I53
tp718
a(F350.7831341660702
I53
tp719
a(F108.42652209178902
I34
tp720
a(F289.0643739536849
I26
tp721
a(F287.4917046875975
I26
tp722
a(F130.24388886641046
I34
tp723
a(F280.0129825993629
I44
tp724
a(F247.18589651890423
I44
tp725
a(F696.2578431693374
I141
tp726
a(F495.11234900105427
I142
tp727
a(F678.7249873871796
I141
tp728
a(F615.6092871782473
I141
tp729
a(F636.9156676061725
I141
tp730
a(F717.7019980742548
I141
tp731
a(F478.925944553963
I142
tp732
a(F719.3195093410872
I141
tp733
a(F474.1967017897556
I6
tp734
a(F732.166574223688
I6
tp735
a(F459.7446252570513
I6
tp736
a(F440.13021553948914
I6
tp737
a(F681.0857307137671
I25
tp738
a(F464.8685303637817
I25
tp739
a(F662.8462796613608
I27
tp740
a(F645.2115219281777
I37
tp741
a(F487.24193251886896
I27
tp742
a(F583.0627901836923
I37
tp743
a(F288.35130970913536
I27
tp744
a(F202.4260735775742
I25
tp745
a(F296.6494337638659
I28
tp746
a(F182.128481245454
I27
tp747
a(F119.20736213066266
I23
tp748
a(F142.62530785797176
I18
tp749
a(F357.30626903973257
I37
tp750
a(F170.09271362872374
I23
tp751
a(F95.60392728101513
I23
tp752
a(F245.13950202112142
I23
tp753
a(F162.7626101570398
I28
tp754
a(F263.92705262665083
I23
tp755
a(F263.70152946293985
I23
tp756
a(F87.5602007396835
I23
tp757
a(F348.0871520166354
I53
tp758
a(F76.38972949821233
I26
tp759
a(F277.5066406778025
I23
tp760
a(F76.63437219068231
I26
tp761
a(F240.25269587007708
I38
tp762
a(F325.82558856452965
I53
tp763
a(F89.19530705000709
I31
tp764
a(F353.4349453447091
I53
tp765
a(F309.51186768882326
I53
tp766
a(F329.17343983667587
I53
tp767
a(F367.5807210735038
I53
tp768
a(F253.3163146234841
I26
tp769
a(F144.20948099128094
I44
tp770
a(F176.75460572157672
I44
tp771
a(F262.11466371626926
I34
tp772
a(F238.9474647339179
I44
tp773
a(F212.5509175961128
I44
tp774
a(F462.00119356244
I141
tp775
a(F448.21272944379837
I141
tp776
a(F537.1620562414653
I141
tp777
a(F565.3904689575683
I141
tp778
a(F437.7382075505819
I142
tp779
a(F509.39735026400126
I141
tp780
a(F480.38229104640334
I141
tp781
a(F444.2582517472397
I142
tp782
a(F600.3191130276222
I141
tp783
a(F661.5263645026165
I141
tp784
a(F633.8530185317704
I141
tp785
a(F682.2035302302174
I141
tp786
a(F696.9136121306644
I141
tp787
a(F434.2167986867457
I6
tp788
a(F708.3529418813873
I6
tp789
a(F703.7612907419228
I6
tp790
a(F431.74718260446616
I6
tp791
a(F700.5563279228003
I6
tp792
a(F686.7894651169058
I25
tp793
a(F451.9511448759664
I6
tp794
a(F468.581767943585
I25
tp795
a(F587.7388025112926
I37
tp796
a(F533.3175351655184
I37
tp797
a(F208.08256363891374
I25
tp798
a(F228.71707143476058
I25
tp799
a(F202.39888658702515
I25
tp800
a(F186.79329464796984
I25
tp801
a(F263.976247868514
I25
tp802
a(F180.36654948030295
I25
tp803
a(F284.898411179146
I27
tp804
a(F303.6969196234647
I28
tp805
a(F167.86873321725102
I25
tp806
a(F330.3109542335385
I28
tp807
a(F189.87934559584795
I18
tp808
a(F343.3556780076889
I37
tp809
a(F158.92735785045323
I27
tp810
a(F248.87191327965581
I23
tp811
a(F375.5592034304271
I37
tp812
a(F66.85071433772512
I23
tp813
a(F175.15654733769313
I37
tp814
a(F186.026227154241
I37
tp815
a(F358.1548081719982
I53
tp816
a(F210.41224935938754
I37
tp817
a(F347.0664915618686
I53
tp818
a(F301.3371117550627
I53
tp819
a(F264.613237499809
I53
tp820
a(F353.5207935706747
I53
tp821
a(F338.18920818478466
I53
tp822
a(F90.69161074249588
I34
tp823
a(F125.44940202804699
I34
tp824
a(F231.78791910815835
I34
tp825
a(F161.14769984495388
I44
tp826
a(F484.70809013142724
I141
tp827
a(F477.91196150022625
I141
tp828
a(F487.95387843311516
I141
tp829
a(F498.5434876407411
I141
tp830
a(F491.7203459792329
I141
tp831
a(F510.48360454428456
I141
tp832
a(F513.6213800310269
I141
tp833
a(F473.18376108011074
I141
tp834
a(F526.326213766182
I141
tp835
a(F469.6897202925837
I141
tp836
a(F545.3275254133472
I141
tp837
a(F540.9791165586021
I141
tp838
a(F468.03192829327287
I141
tp839
a(F556.2482766503871
I141
tp840
a(F560.2221170981376
I141
tp841
a(F463.3591412660795
I141
tp842
a(F432.1709035310436
I141
tp843
a(F429.22152761131844
I141
tp844
a(F426.2218891914592
I141
tp845
a(F451.931027876953
I141
tp846
a(F439.65403204205757
I141
tp847
a(F422.09138326312296
I141
tp848
a(F418.67154883151125
I141
tp849
a(F569.0969118185801
I141
tp850
a(F418.618013221415
I141
tp851
a(F417.84040976549136
I141
tp852
a(F573.3635988575276
I141
tp853
a(F581.8991406514007
I141
tp854
a(F588.9996379056558
I141
tp855
a(F591.9700554301031
I141
tp856
a(F416.806225765627
I142
tp857
a(F597.409217933221
I141
tp858
a(F603.9313341448153
I141
tp859
a(F607.2446533226756
I141
tp860
a(F415.9796517753931
I142
tp861
a(F617.6259812839755
I141
tp862
a(F621.039359737252
I141
tp863
a(F417.06522469108666
I142
tp864
a(F624.9375688638385
I141
tp865
a(F630.3536800436129
I141
tp866
a(F633.7794697334261
I141
tp867
a(F638.4380596188925
I141
tp868
a(F645.9767073796035
I141
tp869
a(F417.0089768697529
I129
tp870
a(F417.8136702875284
I104
tp871
a(F658.1976259352798
I141
tp872
a(F661.1911763726084
I141
tp873
a(F416.87120503259706
I104
tp874
a(F665.9058838341771
I141
tp875
a(F668.3821058313746
I141
tp876
a(F413.87782086182096
I104
tp877
a(F412.2033051905331
I104
tp878
a(F674.1463910464674
I141
tp879
a(F675.5856852760569
I141
tp880
a(F410.37880426364603
I104
tp881
a(F677.6134203017061
I141
tp882
a(F679.5625250879586
I6
tp883
a(F407.7860671103475
I6
tp884
a(F680.3023768226303
I6
tp885
a(F406.9369144669999
I6
tp886
a(F405.40060724661276
I6
tp887
a(F681.3248706962962
I6
tp888
a(F406.47761653985623
I6
tp889
a(F681.4607455253182
I6
tp890
a(F408.2698332393968
I6
tp891
a(F683.1488582829695
I6
tp892
a(F411.5007333309655
I6
tp893
a(F683.6535893808538
I6
tp894
a(F683.3053812120353
I6
tp895
a(F684.2110933125263
I6
tp896
a(F419.46577723257093
I6
tp897
a(F683.9088564352124
I6
tp898
a(F683.661488978923
I25
tp899
a(F184.48793101968067
I6
tp900
a(F425.310677721501
I6
tp901
a(F173.05441344248467
I6
tp902
a(F162.80262244609222
I6
tp903
a(F157.29662565968292
I6
tp904
a(F147.48291200651838
I6
tp905
a(F205.24979892639328
I6
tp906
a(F138.6560936249281
I6
tp907
a(F430.1459891663788
I6
tp908
a(F679.7475425704114
I25
tp909
a(F209.32944790908525
I6
tp910
a(F124.86437405170791
I6
tp911
a(F212.33540427945604
I6
tp912
a(F678.3953532642402
I25
tp913
a(F435.1434916223899
I6
tp914
a(F214.58305205986062
I6
tp915
a(F118.15587544393398
I6
tp916
a(F435.5074617561963
I6
tp917
a(F674.5002108244826
I25
tp918
a(F216.533420735287
I6
tp919
a(F113.25323590663909
I6
tp920
a(F111.03113388291064
I6
tp921
a(F216.27208697823775
I6
tp922
a(F110.50934812641337
I6
tp923
a(F443.47189754314763
I6
tp924
a(F214.65852352824209
I6
tp925
a(F668.757265637144
I25
tp926
a(F226.44266979375786
I6
tp927
a(F222.45602508209316
I6
tp928
a(F446.65640985138094
I6
tp929
a(F214.43179094509858
I6
tp930
a(F217.6564354907064
I6
tp931
a(F449.3137137367637
I6
tp932
a(F232.27180458230927
I6
tp933
a(F451.28218903023685
I6
tp934
a(F663.9510550613569
I25
tp935
a(F453.974734404157
I6
tp936
a(F234.23277099484278
I6
tp937
a(F455.9792314100774
I6
tp938
a(F105.00044422441674
I6
tp939
a(F661.6149178977835
I25
tp940
a(F101.12074040434261
I6
tp941
a(F455.47613989859184
I25
tp942
a(F455.94044844311975
I25
tp943
a(F100.36688846091039
I6
tp944
a(F239.23260075483526
I6
tp945
a(F455.1415121356093
I25
tp946
a(F240.14498871707156
I6
tp947
a(F103.74543762173266
I6
tp948
a(F455.5162664521577
I25
tp949
a(F240.7912197110236
I6
tp950
a(F456.269206347391
I25
tp951
a(F101.3326996745119
I6
tp952
a(F241.84579884695634
I6
tp953
a(F456.256850645421
I25
tp954
a(F102.48276155200358
I6
tp955
a(F648.4368556589593
I25
tp956
a(F646.1838792208382
I25
tp957
a(F243.00674234128746
I6
tp958
a(F457.6286980215747
I25
tp959
a(F645.1319047486129
I27
tp960
a(F244.1176713388902
I6
tp961
a(F643.3181629717155
I27
tp962
a(F457.50345763339664
I25
tp963
a(F104.71441623446522
I6
tp964
a(F242.99300496740446
I17
tp965
a(F640.985865171699
I27
tp966
a(F458.20848417539696
I25
tp967
a(F89.6208733015074
I6
tp968
a(F85.21919704195628
I14
tp969
a(F104.6398986014648
I6
tp970
a(F638.2026669562376
I27
tp971
a(F101.93328939304338
I15
tp972
a(F97.43648372481188
I15
tp973
a(F242.32210195436028
I17
tp974
a(F79.78214477045951
I15
tp975
a(F630.3720080703787
I37
tp976
a(F75.67134559828791
I15
tp977
a(F240.19706998832604
I17
tp978
a(F462.3530371143795
I25
tp979
a(F240.05375553757045
I17
tp980
a(F620.6826811558544
I37
tp981
a(F465.35274669273156
I25
tp982
a(F466.0193509553847
I25
tp983
a(F72.18978766855155
I17
tp984
a(F238.2404079309365
I17
tp985
a(F610.2504304176739
I37
tp986
a(F468.8477218341676
I25
tp987
a(F64.34522381366438
I17
tp988
a(F602.4533776526569
I37
tp989
a(F232.68341988264305
I24
tp990
a(F599.4945950323124
I37
tp991
a(F59.975507460038344
I17
tp992
a(F474.79008962516417
I25
tp993
a(F228.1625271621821
I24
tp994
a(F56.49276837779137
I17
tp995
a(F591.3986909212333
I37
tp996
a(F51.30257635083399
I17
tp997
a(F479.52576034775126
I25
tp998
a(F584.022245509566
I37
tp999
a(F47.742293986455245
I17
tp1000
a(F223.6576595967202
I24
tp1001
a(F579.1970760536476
I37
tp1002
a(F574.1022168767685
I37
tp1003
a(F486.73446948609615
I27
tp1004
a(F40.19949993453635
I17
tp1005
a(F570.8808532593945
I37
tp1006
a(F491.2929491085963
I27
tp1007
a(F220.06169682152992
I24
tp1008
a(F493.18467312414873
I27
tp1009
a(F36.45972105804668
I17
tp1010
a(F496.0778647562899
I27
tp1011
a(F507.22493407294434
I27
tp1012
a(F218.1491741361456
I24
tp1013
a(F550.2849022309701
I37
tp1014
a(F544.4150157836416
I37
tp1015
a(F538.4736199421687
I37
tp1016
a(F547.0288582452436
I37
tp1017
a(F31.66973418864461
I17
tp1018
a(F217.04913047761556
I25
tp1019
a(F522.1785423384243
I37
tp1020
a(F519.2732041892363
I37
tp1021
a(F100.62355296638754
I17
tp1022
a(F27.50468287825111
I17
tp1023
a(F216.66966152399286
I25
tp1024
a(F104.55803216863264
I17
tp1025
a(F107.80007937025437
I17
tp1026
a(F168.2968013573039
I24
tp1027
a(F28.43487237687439
I17
tp1028
a(F218.2521700851811
I25
tp1029
a(F97.24838057104957
I17
tp1030
a(F162.71570078852199
I24
tp1031
a(F28.789010675806765
I17
tp1032
a(F117.8555337845471
I17
tp1033
a(F165.03174102150592
I24
tp1034
a(F131.33999025537634
I24
tp1035
a(F29.023794979064885
I17
tp1036
a(F133.54004326615623
I24
tp1037
a(F157.4066686280775
I24
tp1038
a(F97.135836944903
I17
tp1039
a(F27.817051321683316
I17
tp1040
a(F163.1048742972658
I24
tp1041
a(F122.16820713761754
I24
tp1042
a(F223.65718000299213
I25
tp1043
a(F151.0124286363733
I24
tp1044
a(F147.9748381177386
I24
tp1045
a(F137.17932056972344
I24
tp1046
a(F92.95262550154551
I17
tp1047
a(F139.82455565827297
I24
tp1048
a(F89.82631749652653
I17
tp1049
a(F83.31984990169231
I17
tp1050
a(F225.65130521286923
I25
tp1051
a(F79.03614888827215
I17
tp1052
a(F28.999901084710288
I0
tp1053
a(F231.0623753901133
I25
tp1054
a(F71.26531017947532
I17
tp1055
a(F65.77945563005815
I17
tp1056
a(F240.09701881587674
I25
tp1057
a(F246.32653653740425
I25
tp1058
a(F242.6671136238142
I25
tp1059
a(F62.017675278286426
I0
tp1060
a(F31.6535275715524
I0
tp1061
a(F249.45404159668698
I25
tp1062
a(F77.81183931211847
I0
tp1063
a(F57.913864764236095
I0
tp1064
a(F258.21087974040717
I25
tp1065
a(F70.58480704038044
I0
tp1066
a(F55.575717387454254
I0
tp1067
a(F57.54566772156334
I0
tp1068
a(F35.1269870259403
I0
tp1069
a(F159.24199723533198
I25
tp1070
a(F263.83901946658494
I25
tp1071
a(F76.39046349853217
I0
tp1072
a(F73.5274805746652
I21
tp1073
a(F41.014331563156034
I19
tp1074
a(F53.5942741691967
I0
tp1075
a(F43.63451179653754
I19
tp1076
a(F47.81973065297985
I19
tp1077
a(F270.6103691702696
I25
tp1078
a(F276.01438801794677
I25
tp1079
a(F279.8478308668447
I25
tp1080
a(F282.35840880981533
I27
tp1081
a(F155.6153461791916
I25
tp1082
a(F288.6682767182219
I27
tp1083
a(F162.4959382769263
I18
tp1084
a(F290.4340220207679
I27
tp1085
a(F154.65938198343315
I25
tp1086
a(F294.4360468294829
I27
tp1087
a(F134.4965990937316
I18
tp1088
a(F303.632544048435
I28
tp1089
a(F149.37168735846492
I25
tp1090
a(F307.16093869813983
I28
tp1091
a(F309.94042227067587
I28
tp1092
a(F313.4967062568959
I28
tp1093
a(F111.3773616650699
I18
tp1094
a(F146.08188325838012
I25
tp1095
a(F191.80329727238876
I18
tp1096
a(F325.3929718225826
I28
tp1097
a(F331.3924560232094
I37
tp1098
a(F336.628689880735
I37
tp1099
a(F216.62742710617118
I18
tp1100
a(F343.1704730729245
I37
tp1101
a(F345.0807803671773
I37
tp1102
a(F144.30474435815162
I25
tp1103
a(F351.1805773268549
I37
tp1104
a(F352.65614618308103
I37
tp1105
a(F226.69201715272484
I18
tp1106
a(F144.6607182702673
I25
tp1107
a(F351.70194313522745
I37
tp1108
a(F352.3531207367919
I37
tp1109
a(F91.70392610597158
I23
tp1110
a(F354.46395478056934
I37
tp1111
a(F146.47306671163653
I27
tp1112
a(F355.76671448524115
I37
tp1113
a(F252.20396928922514
I18
tp1114
a(F361.06122938731806
I37
tp1115
a(F146.35036194206506
I27
tp1116
a(F268.6371834484513
I18
tp1117
a(F78.8009248016058
I23
tp1118
a(F148.08610716681645
I27
tp1119
a(F367.204853409678
I37
tp1120
a(F368.94059301288956
I37
tp1121
a(F148.74555870956902
I27
tp1122
a(F369.57041152402303
I37
tp1123
a(F63.57506562882221
I23
tp1124
a(F367.8738964111243
I37
tp1125
a(F155.51297422827736
I28
tp1126
a(F369.1064075114868
I37
tp1127
a(F368.12860980009197
I37
tp1128
a(F160.35683812461764
I28
tp1129
a(F368.40518907588114
I37
tp1130
a(F163.38640187397735
I28
tp1131
a(F166.90779278967906
I28
tp1132
a(F267.1240854130102
I23
tp1133
a(F361.83985960241415
I37
tp1134
a(F166.64173752423122
I37
tp1135
a(F359.6740984679083
I37
tp1136
a(F167.425948350591
I37
tp1137
a(F356.53349892488797
I37
tp1138
a(F264.007599311086
I23
tp1139
a(F350.412272668861
I37
tp1140
a(F347.2416791717776
I37
tp1141
a(F181.43673452207995
I37
tp1142
a(F169.18243644349198
I37
tp1143
a(F342.34310604581304
I37
tp1144
a(F184.92333064531422
I37
tp1145
a(F177.50871286413383
I37
tp1146
a(F171.3804519335744
I37
tp1147
a(F67.25340769419196
I26
tp1148
a(F183.8357168293862
I37
tp1149
a(F186.59872735016867
I37
tp1150
a(F185.66032244153507
I37
tp1151
a(F339.24284305066004
I37
tp1152
a(F190.13439932083506
I37
tp1153
a(F341.23667325205486
I38
tp1154
a(F197.46933339976712
I37
tp1155
a(F343.22672711477827
I53
tp1156
a(F254.11077962439907
I23
tp1157
a(F198.96829715584028
I37
tp1158
a(F205.62951135189732
I37
tp1159
a(F206.54017374037088
I37
tp1160
a(F341.83295146537887
I53
tp1161
a(F211.2446990057637
I37
tp1162
a(F213.99768974709696
I37
tp1163
a(F341.2327437716411
I53
tp1164
a(F221.90497950464336
I37
tp1165
a(F339.2599650865395
I53
tp1166
a(F224.05175536477216
I37
tp1167
a(F226.88727465841362
I38
tp1168
a(F74.5206939953063
I26
tp1169
a(F336.4750494306003
I53
tp1170
a(F229.0181737559708
I38
tp1171
a(F333.5345917750062
I53
tp1172
a(F258.4567436909146
I26
tp1173
a(F330.17843382317153
I53
tp1174
a(F322.37005669281643
I53
tp1175
a(F241.28224795314887
I38
tp1176
a(F318.8086990624981
I53
tp1177
a(F86.56338537358752
I26
tp1178
a(F313.4441804151573
I53
tp1179
a(F310.222924061593
I53
tp1180
a(F295.47622498929155
I53
tp1181
a(F287.81415798727215
I53
tp1182
a(F283.45873739246366
I53
tp1183
a(F277.8865286470938
I53
tp1184
a(F253.85088038713766
I53
tp1185
a(F270.83027263938277
I53
tp1186
a(F266.9123296026665
I53
tp1187
a(F260.1518642599404
I53
tp1188
a(F263.7130419064102
I53
tp1189
a(F256.47168566438694
I53
tp1190
a(F255.55543810821976
I26
tp1191
a(F86.86155640959642
I34
tp1192
a(F245.52220338425198
I26
tp1193
a(F231.36037134480037
I26
tp1194
a(F107.08919519420479
I43
tp1195
a(F127.91431014625127
I34
tp1196
a(F219.6059088721568
I34
tp1197
a(F212.71506664170477
I44
tp1198
a(F149.55574338983038
I44
tp1199
a(F178.212677836137
I44
tp1200
a(F194.35621362560627
I44
tp1201
a(F110.34408312696108
I16
tp1202
a(F120.83128926370725
I16
tp1203
a(F104.77284379060497
I16
tp1204
a(F103.86110026947354
I16
tp1205
a(F100.64849336999899
I18
tp1206
a(F98.353476248148
I18
tp1207
a(F149.45757197819094
I16
tp1208
a(F94.75492778852195
I18
tp1209
a(F154.04729658494398
I16
tp1210
a(F92.718471319286
I18
tp1211
a(F89.2468831382825
I18
tp1212
a(F87.31157654937711
I18
tp1213
a(F174.6954803650355
I16
tp1214
a(F84.3160539551545
I18
tp1215
a(F178.0756905463515
I16
tp1216
a(F82.65773423103256
I18
tp1217
a(F182.20271469414035
I16
tp1218
a(F79.57369231803817
I18
tp1219
a(F185.6873585066728
I16
tp1220
a(F189.8174722925685
I16
tp1221
a(F193.31429678535451
I16
tp1222
a(F197.4469422907595
I16
tp1223
a(F200.86447786395667
I16
tp1224
a(F204.9990666366906
I16
tp1225
a(F74.44641315427992
I18
tp1226
a(F208.51709774784806
I16
tp1227
a(F212.65337737158094
I16
tp1228
a(F74.67639842744848
I18
tp1229
a(F216.1804809080046
I16
tp1230
a(F219.795651125349
I16
tp1231
a(F74.42256173242122
I18
tp1232
a(F243.71614962486692
I16
tp1233
a(F75.338794225962
I20
tp1234
a(F240.56842110536806
I16
tp1235
a(F247.8738007316015
I16
tp1236
a(F251.54234040640094
I16
tp1237
a(F258.90887368556855
I16
tp1238
a(F262.60604105985396
I16
tp1239
a(F270.0262740126036
I16
tp1240
a(F255.7418786620919
I16
tp1241
a(F266.81134212326157
I16
tp1242
a(F275.44383245443277
I16
tp1243
a(F288.3978723761212
I16
tp1244
a(F74.07733906357403
I23
tp1245
a(F292.61047908706195
I16
tp1246
a(F296.0171727057388
I16
tp1247
a(F297.41096443927415
I16
tp1248
a(F74.090010778978
I23
tp1249
a(F295.87983060005
I16
tp1250
a(F75.89656015097965
I23
tp1251
a(F56.04759021126548
I23
tp1252
a(F59.29107015807643
I23
tp1253
a(F286.2770560841508
I18
tp1254
a(F75.23041918500304
I23
tp1255
a(F68.92499280007173
I23
tp1256
a(F72.47588057064185
I23
tp1257
a(F50.96132277277814
I23
tp1258
a(F282.4697975157141
I18
tp1259
a(F278.9973908220967
I18
tp1260
a(F49.51623595314725
I23
tp1261
a(F271.86234385645577
I18
tp1262
a(F50.33728247499815
I23
tp1263
a(F270.78409746369715
I23
tp1264
a(F52.28476889832527
I23
tp1265
a(F53.451147665427
I23
tp1266
a(F263.2627721787284
I23
tp1267
a(F262.27599633310564
I23
tp1268
a(F259.8450912783558
I23
tp1269
a(F55.850795256211754
I23
tp1270
a(F258.0599272242161
I23
tp1271
a(F258.5928347169884
I23
tp1272
a(F256.43668452033944
I23
tp1273
a(F255.70806700610862
I23
tp1274
a(F61.76623665492914
I26
tp1275
a(F253.62171565645409
I23
tp1276
a(F254.37315733489498
I23
tp1277
a(F252.29441623122992
I23
tp1278
a(F59.40569398280618
I26
tp1279
a(F251.89895727206033
I23
tp1280
a(F247.949600783586
I23
tp1281
a(F59.807024851423705
I26
tp1282
a(F247.73259305797666
I23
tp1283
a(F61.57612162610362
I26
tp1284
a(F245.89100038628442
I23
tp1285
a(F62.41426620983944
I26
tp1286
a(F245.80239462921654
I23
tp1287
a(F64.55696957450338
I26
tp1288
a(F244.46787376456587
I23
tp1289
a(F65.84469752867999
I26
tp1290
a(F244.66628008524444
I23
tp1291
a(F243.11259176457713
I23
tp1292
a(F71.1400301554104
I26
tp1293
a(F74.37740608234652
I26
tp1294
a(F80.35668730480882
I26
tp1295
a(F83.77046023126545
I26
tp1296
a(F84.91995032042898
I26
tp1297
a(F88.26173879636647
I26
tp1298
a(F241.1908722539118
I26
tp1299
a(F242.11269759887193
I26
tp1300
a(F92.81100558903152
I31
tp1301
a(F241.56709721222018
I26
tp1302
a(F92.80953791358165
I31
tp1303
a(F242.6853599530434
I26
tp1304
a(F94.21214724085505
I31
tp1305
a(F94.40484128759563
I34
tp1306
a(F242.66094143984557
I26
tp1307
a(F244.4093831965391
I26
tp1308
a(F96.50484038915415
I34
tp1309
a(F98.9347139142637
I34
tp1310
a(F244.75594219680002
I26
tp1311
a(F100.34207839833297
I34
tp1312
a(F104.22118925888401
I34
tp1313
a(F107.64152156769019
I34
tp1314
a(F239.30409427240946
I26
tp1315
a(F110.43826647210555
I34
tp1316
a(F239.8758746906466
I26
tp1317
a(F112.22595684316438
I34
tp1318
a(F115.20398942799193
I34
tp1319
a(F118.76278076483504
I34
tp1320
a(F125.47355003743327
I34
tp1321
a(F132.32771978310618
I34
tp1322
a(F135.80181241425416
I34
tp1323
a(F160.80634340409668
I34
tp1324
a(F164.45724949358805
I34
tp1325
a(F236.5403261234811
I26
tp1326
a(F129.47896390288187
I34
tp1327
a(F139.8546480792247
I34
tp1328
a(F143.36955542012322
I34
tp1329
a(F154.05632060179738
I34
tp1330
a(F157.66057449268598
I34
tp1331
a(F168.58047705877385
I34
tp1332
a(F147.44287032792096
I34
tp1333
a(F150.99306885594487
I34
tp1334
a(F238.19031730013342
I26
tp1335
a(F174.01358663451398
I34
tp1336
a(F234.14967754356894
I34
tp1337
a(F179.02763026250307
I34
tp1338
a(F181.35814760284742
I44
tp1339
a(F181.06196702216673
I44
tp1340
a(F234.55303698259232
I34
tp1341
a(F233.58416208349752
I44
tp1342
a(F186.12137758923606
I44
tp1343
a(F230.84178075345463
I44
tp1344
a(F189.99470647428478
I44
tp1345
a(F226.85553168413264
I44
tp1346
a(F221.5905730208643
I44
tp1347
a(F209.73618472258227
I44
tp1348
a(F217.64742129872604
I44
tp1349
a(F1459.5351928809907
I72
tp1350
a(F1456.0042060069552
I72
tp1351
a(F1462.4913047620287
I72
tp1352
a(F1452.2702567642673
I72
tp1353
a(F1464.3297204490946
I72
tp1354
a(F1462.6024900167638
I74
tp1355
a(F1451.2871063615592
I74
tp1356
a(F1459.9607385869401
I74
tp1357
a(F1456.4273623562813
I74
tp1358
a(F1453.095080573902
I74
tp1359
a(F1477.99743265968
I53
tp1360
a(F1460.1335086237193
I72
tp1361
a(F1487.8740662215605
I53
tp1362
a(F1470.4779001209863
I74
tp1363
a(F1472.9027688157073
I53
tp1364
a(F1485.5182284402908
I72
tp1365
a(F1506.5003057943338
I251
tp1366
a(F1511.8657064247145
I53
tp1367
a(F1486.3620255124424
I53
tp1368
a(F1620.2922332626235
I74
tp1369
a(F1634.636393125918
I74
tp1370
a(F1616.1096336408843
I74
tp1371
a(F1638.7763233124876
I74
tp1372
a(F1615.7960143690395
I74
tp1373
a(F1639.6179862717922
I74
tp1374
a(F1616.625692881228
I74
tp1375
a(F1620.7850846426675
I74
tp1376
a(F1621.6491842724874
I74
tp1377
a(F1623.737922422023
I74
tp1378
a(F1624.6202469435352
I74
tp1379
a(F1626.729095209062
I74
tp1380
a(F1627.6293116859194
I74
tp1381
a(F1662.8974393449573
I74
tp1382
a(F1661.5290085994654
I74
tp1383
a(F1636.1527932346646
I74
tp1384
a(F1642.8777455552938
I74
tp1385
a(F1646.1833395053998
I74
tp1386
a(F1651.7891672451606
I74
tp1387
a(F1648.3470825030938
I74
tp1388
a(F1496.7240296110538
I251
tp1389
a(F1519.5594378168237
I251
tp1390
a(F1505.090840411234
I53
tp1391
a(F1619.176628878821
I74
tp1392
a(F1635.0976832173399
I74
tp1393
a(F1621.1842807112264
I74
tp1394
a(F1671.0851548497096
I74
tp1395
a(F1631.0485177882633
I74
tp1396
a(F1676.3926345007474
I74
tp1397
a(F1674.569037419392
I74
tp1398
a(F1668.8429967839013
I74
tp1399
a(F1495.8180591960313
I251
tp1400
a(F1528.3492361532733
I251
tp1401
a(F1664.1790384201058
I74
tp1402
a(F1656.849828735062
I74
tp1403
a(F1638.8448076876255
I74
tp1404
a(F1644.2463045879576
I74
tp1405
a(F1666.7979063824937
I74
tp1406
a(F1694.2517165132936
I74
tp1407
a(F1693.8411554917523
I74
tp1408
a(F1681.1209475357387
I74
tp1409
a(F1519.4957174138563
I256
tp1410
a(F1537.73688660794
I256
tp1411
a(F1554.3835231275907
I256
tp1412
a(F1518.9772889622793
I251
tp1413
a(F1546.2279737528036
I256
tp1414
a(F1859.1628151804944
I74
tp1415
a(F1848.686106253266
I74
tp1416
a(F1858.3704687510135
I74
tp1417
a(F1840.912104356387
I74
tp1418
a(F1839.3622085073646
I74
tp1419
a(F1855.2802479174072
I74
tp1420
a(F1831.6418139464631
I74
tp1421
a(F1827.9128252937926
I74
tp1422
a(F1847.5628613999786
I74
tp1423
a(F1824.3143704474537
I74
tp1424
a(F1846.0473476240693
I74
tp1425
a(F1843.3750578676268
I74
tp1426
a(F1816.653330366884
I74
tp1427
a(F1841.8763668644704
I74
tp1428
a(F1815.1550974504837
I74
tp1429
a(F1812.612616178519
I74
tp1430
a(F1839.221215926044
I74
tp1431
a(F1837.739451597495
I74
tp1432
a(F1835.2012744995902
I74
tp1433
a(F1832.5695101713152
I74
tp1434
a(F1808.186085884286
I74
tp1435
a(F1830.042693322086
I74
tp1436
a(F1805.6664882966497
I74
tp1437
a(F1828.5887347123146
I74
tp1438
a(F1826.0791575432488
I74
tp1439
a(F1802.7702484166332
I74
tp1440
a(F1824.6394338973082
I74
tp1441
a(F1673.2046993487832
I74
tp1442
a(F1819.6302195622523
I74
tp1443
a(F1818.2118319947087
I74
tp1444
a(F1815.725613993611
I74
tp1445
a(F1804.1213466321665
I74
tp1446
a(F1812.1556949909602
I74
tp1447
a(F1806.2742340678876
I74
tp1448
a(F1809.6767293517066
I74
tp1449
a(F1681.0319680975986
I74
tp1450
a(F1692.3847194286745
I74
tp1451
a(F1699.1394795830258
I74
tp1452
a(F1701.0377343625578
I74
tp1453
a(F1696.6207114808462
I74
tp1454
a(F1563.7329027801854
I256
tp1455
a(F1550.528966772473
I256
tp1456
a(F1557.7437490259551
I256
tp1457
a(F1597.2969717471074
I256
tp1458
a(F1606.150175226312
I256
tp1459
a(F1587.5461871506452
I256
tp1460
a(F1612.9940281983418
I256
tp1461
a(F1864.3221112202714
I74
tp1462
a(F1858.6224328444173
I74
tp1463
a(F1832.7883959722624
I74
tp1464
a(F1685.2372550811735
I74
tp1465
a(F1683.9622058926152
I74
tp1466
a(F1677.8317015722935
I74
tp1467
a(F1747.7037785285825
I74
tp1468
a(F1728.9398996693067
I74
tp1469
a(F1811.0581055603375
I74
tp1470
a(F1765.6105614910305
I74
tp1471
a(F1808.9777402677703
I74
tp1472
a(F1710.543714632828
I74
tp1473
a(F1854.1030287586082
I74
tp1474
a(F1788.5131122995213
I74
tp1475
a(F1814.7130898329792
I74
tp1476
a(F1815.1457645234825
I74
tp1477
a(F1810.3596726864998
I74
tp1478
a(F1863.112814368991
I74
tp1479
a(F1803.0120886263646
I74
tp1480
a(F1859.934837211824
I74
tp1481
a(F1825.580398594067
I74
tp1482
a(F1729.4001530613648
I74
tp1483
a(F1703.6095686262015
I74
tp1484
a(F1757.9611137201987
I74
tp1485
a(F1797.051315741382
I74
tp1486
a(F1586.360055230691
I256
tp1487
a(F1650.614692987435
I256
tp1488
a(F1631.2889321377181
I74
tp1489
a(F1666.1576817488196
I74
tp1490
a(F1663.281531190589
I74
tp1491
a(F1852.7722224994284
I74
tp1492
a(F1661.9217046874292
I74
tp1493
a(F1866.2114137633237
I74
tp1494
a(F1661.77387311718
I74
tp1495
a(F1675.493235081889
I74
tp1496
a(F1647.548585409982
I74
tp1497
a(F1700.4446689406816
I74
tp1498
a(F1878.1021966670874
I74
tp1499
a(F1833.6062985584622
I74
tp1500
a(F1890.689372302848
I74
tp1501
a(F1729.7528798215585
I74
tp1502
a(F1893.186124060926
I74
tp1503
a(F1674.437014724358
I74
tp1504
a(F1757.242408501773
I74
tp1505
a(F1784.241814140902
I74
tp1506
a(F1683.434769253134
I74
tp1507
a(F1817.0430206332533
I74
tp1508
a(F1768.9262966782069
I74
tp1509
a(F1888.399918365278
I74
tp1510
a(F1706.0619691942245
I74
tp1511
a(F1851.5387694585675
I74
tp1512
a(F1826.112834922484
I74
tp1513
a(F1817.7979911420914
I74
tp1514
a(F1570.9996945205223
I256
tp1515
a(F1554.734498918735
I256
tp1516
a(F1609.1488894373424
I256
tp1517
a(F1557.6096325683036
I256
tp1518
a(F1571.0431615715777
I256
tp1519
a(F1685.183427406035
I256
tp1520
a(F1702.060340907557
I74
tp1521
a(F1615.1247233302304
I74
tp1522
a(F1857.2977910119685
I74
tp1523
a(F1748.0523367024414
I74
tp1524
a(F1883.8475708419087
I74
tp1525
a(F1628.1350590201619
I74
tp1526
a(F1657.6961142512523
I74
tp1527
a(F1899.9759369143405
I74
tp1528
a(F1799.721595023065
I74
tp1529
a(F1664.7367454589557
I74
tp1530
a(F1841.8348038423103
I74
tp1531
a(F1821.9152821469556
I74
tp1532
a(F1895.196866880948
I74
tp1533
a(F1748.3276485136225
I74
tp1534
a(F1894.6341777992043
I74
tp1535
a(F1866.1731900865686
I74
tp1536
a(F1763.7860316088932
I74
tp1537
a(F1823.9698737046247
I74
tp1538
a(F1777.295320684807
I74
tp1539
a(F1794.945148173111
I74
tp1540
a(F1427.4050590470988
I256
tp1541
a(F1424.3376835825318
I256
tp1542
a(F1419.7829312185477
I256
tp1543
a(F1434.673015860918
I256
tp1544
a(F1419.3858655064384
I256
tp1545
a(F1560.6002847364493
I256
tp1546
a(F1417.1310713706066
I256
tp1547
a(F1438.0896616824714
I256
tp1548
a(F1441.7557939185556
I256
tp1549
a(F1416.3706984914832
I256
tp1550
a(F1445.1779204098948
I256
tp1551
a(F1417.8140538816322
I256
tp1552
a(F1448.785896251632
I256
tp1553
a(F1452.213276318099
I256
tp1554
a(F1423.8811470161418
I256
tp1555
a(F1551.6627189165415
I256
tp1556
a(F1454.6295690389863
I256
tp1557
a(F1456.0398081102196
I256
tp1558
a(F1437.848164302477
I256
tp1559
a(F1434.8328328206055
I256
tp1560
a(F1454.640308667219
I256
tp1561
a(F1445.5477063229223
I256
tp1562
a(F1601.3242437812842
I256
tp1563
a(F1722.2706004417778
I74
tp1564
a(F1615.31532896316
I74
tp1565
a(F1767.8841119862213
I74
tp1566
a(F1793.6922281611608
I74
tp1567
a(F1822.2753189446091
I74
tp1568
a(F1837.7392496830648
I74
tp1569
a(F1864.8452094892023
I74
tp1570
a(F1696.9358358914378
I74
tp1571
a(F1868.3042100635098
I74
tp1572
a(F1718.6701525409349
I74
tp1573
a(F1816.9931540429352
I74
tp1574
a(F1758.7095008281644
I74
tp1575
a(F1782.964971903952
I74
tp1576
a(F1408.1514285620353
I256
tp1577
a(F1401.739274827277
I256
tp1578
a(F1401.0264020207906
I256
tp1579
a(F1431.789357452171
I256
tp1580
a(F1406.2009377514448
I256
tp1581
a(F1442.5630593250685
I256
tp1582
a(F1413.72332861607
I256
tp1583
a(F1417.6289047021573
I256
tp1584
a(F1444.733595703132
I256
tp1585
a(F1421.2484654557763
I256
tp1586
a(F1444.7683826153736
I256
tp1587
a(F1433.0305091129076
I256
tp1588
a(F1436.5880539553855
I256
tp1589
a(F1446.9577263448448
I256
tp1590
a(F1444.46939514646
I256
tp1591
a(F1488.7754790102288
I256
tp1592
a(F1545.5103248883954
I256
tp1593
a(F1419.1464964292888
I256
tp1594
a(F1457.852185184457
I256
tp1595
a(F1608.5732347273854
I256
tp1596
a(F1416.4528507900252
I256
tp1597
a(F1459.9439066619962
I256
tp1598
a(F1648.5647736940732
I256
tp1599
a(F1431.0240625694262
I256
tp1600
a(F1550.6162117858557
I256
tp1601
a(F1697.3474852605416
I256
tp1602
a(F1598.6635803244694
I256
tp1603
a(F1717.2704331251957
I256
tp1604
a(F1621.871879898733
I74
tp1605
a(F1748.5008488683536
I74
tp1606
a(F1643.4532077275064
I74
tp1607
a(F1767.5098733344041
I74
tp1608
a(F1658.8907056638045
I74
tp1609
a(F1801.7758726695463
I74
tp1610
a(F1754.5210675087665
I74
tp1611
a(F1786.9440015003893
I74
tp1612
a(F1749.8087010418062
I74
tp1613
a(F1828.2698713300915
I74
tp1614
a(F1828.7416632762126
I74
tp1615
a(F1768.739757189546
I74
tp1616
a(F1818.7691231954295
I74
tp1617
a(F1791.7557847080177
I74
tp1618
a(F1741.888294953885
I74
tp1619
a(F1784.413102128924
I74
tp1620
a(F1762.4923320249504
I74
tp1621
a(F1441.515369569714
I256
tp1622
a(F1432.6105953762496
I256
tp1623
a(F1442.0526885123181
I256
tp1624
a(F1469.3642316003093
I256
tp1625
a(F1459.775097045868
I256
tp1626
a(F1528.6580609676457
I256
tp1627
a(F1526.4360222088387
I256
tp1628
a(F1428.8283409249964
I256
tp1629
a(F1555.8483797943227
I256
tp1630
a(F1578.0183008410356
I256
tp1631
a(F1414.4099878639327
I256
tp1632
a(F1505.754784536776
I256
tp1633
a(F1622.8021685328622
I256
tp1634
a(F1487.5885553830678
I256
tp1635
a(F1513.2340569364133
I256
tp1636
a(F1464.0776157929593
I256
tp1637
a(F1531.8126900702969
I256
tp1638
a(F1668.2358667197143
I256
tp1639
a(F1585.8628283849937
I256
tp1640
a(F1607.3345091196109
I256
tp1641
a(F1710.1958250937043
I256
tp1642
a(F1740.2063222069157
I74
tp1643
a(F1620.5013005705937
I74
tp1644
a(F1739.8119652236878
I74
tp1645
a(F1749.9525736520395
I74
tp1646
a(F1756.3342302525791
I74
tp1647
a(F1684.7125577986444
I74
tp1648
a(F1768.2846929647399
I74
tp1649
a(F1720.2201024639817
I74
tp1650
a(F1744.4035337519006
I74
tp1651
a(F1781.2984058954737
I74
tp1652
a(F1784.0276181195266
I74
tp1653
a(F1769.644885225455
I74
tp1654
a(F1468.9536137099497
I256
tp1655
a(F1459.6234285487667
I256
tp1656
a(F1490.980194055172
I256
tp1657
a(F1523.0919653915564
I256
tp1658
a(F1471.8842738387173
I256
tp1659
a(F1463.1309803214322
I256
tp1660
a(F1441.9911402910936
I256
tp1661
a(F1416.4260293876475
I256
tp1662
a(F1453.0092323972904
I256
tp1663
a(F1433.8158277994835
I256
tp1664
a(F1570.821334461807
I256
tp1665
a(F1513.4100809508964
I256
tp1666
a(F1492.947561275061
I256
tp1667
a(F1610.8820755332779
I256
tp1668
a(F1597.4415542722809
I256
tp1669
a(F1654.8757669603822
I256
tp1670
a(F1613.3620493949268
I256
tp1671
a(F1709.619279225371
I256
tp1672
a(F1641.8980717909212
I256
tp1673
a(F1669.0728666721254
I74
tp1674
a(F1688.854033216301
I74
tp1675
a(F1716.1130340221457
I74
tp1676
a(F1745.775865648901
I74
tp1677
a(F1768.0956359220477
I74
tp1678
a(F1783.7625232912803
I74
tp1679
a(F1743.0347463178432
I74
tp1680
a(F1776.9527136635602
I74
tp1681
a(F1761.777726822888
I74
tp1682
a(F1762.6122866295646
I74
tp1683
a(F1806.474827713515
I74
tp1684
a(F1798.6052957424495
I74
tp1685
a(F1691.5870629767444
I74
tp1686
a(F1050.4851281701258
I309
tp1687
a(F1069.7393358695406
I309
tp1688
a(F1075.5209060574348
I309
tp1689
a(F1090.9499590387295
I309
tp1690
a(F1047.6312295958944
I309
tp1691
a(F1072.6609007904622
I309
tp1692
a(F1099.7296473500228
I309
tp1693
a(F1101.7620644334265
I309
tp1694
a(F1112.7351460552534
I309
tp1695
a(F1114.7994683487277
I309
tp1696
a(F1119.2723545440608
I309
tp1697
a(F1118.4795334205296
I309
tp1698
a(F1114.9896270946226
I309
tp1699
a(F1112.1609853104028
I309
tp1700
a(F1110.6420590426987
I309
tp1701
a(F1103.8553288409698
I309
tp1702
a(F1103.1438936261243
I309
tp1703
a(F1101.4790742309206
I309
tp1704
a(F1099.4233670750343
I309
tp1705
a(F1099.8156392153212
I309
tp1706
a(F1099.1589072088739
I309
tp1707
a(F1486.9650341277859
I256
tp1708
a(F1474.8958141330259
I256
tp1709
a(F1462.884120269592
I256
tp1710
a(F1385.6790501421024
I256
tp1711
a(F1402.9440435877866
I256
tp1712
a(F1476.0041056841503
I256
tp1713
a(F1568.7501697777664
I256
tp1714
a(F1503.066057932192
I256
tp1715
a(F1530.0170252919859
I256
tp1716
a(F1544.0429813248686
I256
tp1717
a(F1564.8470026798718
I256
tp1718
a(F1834.3059280477905
I74
tp1719
a(F1769.9757670030542
I74
tp1720
a(F1765.4486900565923
I74
tp1721
a(F1841.0064223218822
I74
tp1722
a(F1783.8105343185414
I74
tp1723
a(F1856.3883728638489
I74
tp1724
a(F1846.227214339992
I74
tp1725
a(F1790.0594113676716
I74
tp1726
a(F1771.3978479408884
I74
tp1727
a(F1798.0826013295323
I74
tp1728
a(F1202.898141636338
I309
tp1729
a(F1200.356191767948
I309
tp1730
a(F1210.713507320832
I309
tp1731
a(F1113.4928787670935
I309
tp1732
a(F1213.3102149084202
I309
tp1733
a(F1056.005196458697
I309
tp1734
a(F1200.4766085599715
I309
tp1735
a(F1214.7937167820842
I309
tp1736
a(F1201.8681720509105
I309
tp1737
a(F1202.0150596282049
I309
tp1738
a(F1204.7871338504785
I309
tp1739
a(F1230.9279293659847
I309
tp1740
a(F1207.758068598637
I309
tp1741
a(F1210.4060599324166
I309
tp1742
a(F1233.8410850288285
I309
tp1743
a(F1123.5897825976488
I309
tp1744
a(F1213.445574904689
I309
tp1745
a(F1236.6721691280075
I309
tp1746
a(F1216.2128437474073
I309
tp1747
a(F1236.901270954061
I309
tp1748
a(F1217.711836648842
I309
tp1749
a(F1218.2342618374744
I309
tp1750
a(F1217.2587565904612
I309
tp1751
a(F1234.1716180546573
I309
tp1752
a(F1217.552947635607
I309
tp1753
a(F1230.6031183755595
I309
tp1754
a(F1216.50815186584
I309
tp1755
a(F1229.6592204123508
I309
tp1756
a(F1117.2919468152531
I309
tp1757
a(F1227.2692084916705
I309
tp1758
a(F1209.4422621572483
I309
tp1759
a(F1224.9970116408927
I309
tp1760
a(F1201.952438119328
I309
tp1761
a(F1199.6876415789363
I309
tp1762
a(F1224.0908716495567
I309
tp1763
a(F1220.3468736271877
I309
tp1764
a(F1200.0571392851384
I309
tp1765
a(F1217.9889085082496
I309
tp1766
a(F1202.8189336837204
I309
tp1767
a(F1210.5285973045172
I309
tp1768
a(F1114.872802327724
I309
tp1769
a(F1102.052200858269
I309
tp1770
a(F1432.2060187912455
I256
tp1771
a(F1514.5118901820395
I256
tp1772
a(F1451.654478865838
I256
tp1773
a(F1438.8699252194203
I256
tp1774
a(F1549.725414637305
I256
tp1775
a(F1553.4705459414754
I256
tp1776
a(F1802.7589160264893
I74
tp1777
a(F1810.5824699361758
I74
tp1778
a(F1853.453600290509
I74
tp1779
a(F1790.8408299940718
I74
tp1780
a(F1814.7090551411484
I74
tp1781
a(F1781.0603599366293
I74
tp1782
a(F1871.8589239498453
I74
tp1783
a(F1796.6384117536034
I74
tp1784
a(F1076.4725057551534
I309
tp1785
a(F1141.3208690509693
I309
tp1786
a(F1053.9026539924464
I309
tp1787
a(F1136.9662288083769
I309
tp1788
a(F1242.895215664825
I309
tp1789
a(F1227.5569683496492
I309
tp1790
a(F1221.7413439087507
I309
tp1791
a(F1246.0318170927128
I309
tp1792
a(F1201.4630927208711
I309
tp1793
a(F1199.5470512154916
I309
tp1794
a(F1204.468337990053
I309
tp1795
a(F1130.1870259597347
I309
tp1796
a(F1119.75319255286
I309
tp1797
a(F1411.7693354200442
I256
tp1798
a(F1471.8467355253276
I256
tp1799
a(F1489.589968236981
I256
tp1800
a(F1554.1246583102402
I256
tp1801
a(F1879.1870328393131
I74
tp1802
a(F1832.7208472750413
I74
tp1803
a(F1853.7231442468012
I74
tp1804
a(F1858.7997871524801
I74
tp1805
a(F1836.2742034399798
I74
tp1806
a(F1867.453643219935
I74
tp1807
a(F1796.0475200573733
I74
tp1808
a(F1871.6589929335748
I74
tp1809
a(F1818.7236011729208
I74
tp1810
a(F1840.660457296508
I74
tp1811
a(F1850.4102705707608
I74
tp1812
a(F1781.7707074093387
I74
tp1813
a(F1812.7513892666484
I74
tp1814
a(F1819.5037318291775
I74
tp1815
a(F1795.021998961094
I74
tp1816
a(F1844.2251687902333
I74
tp1817
a(F1099.4820302432472
I309
tp1818
a(F1181.2945263206375
I309
tp1819
a(F1058.6394402074152
I309
tp1820
a(F1032.5300292673267
I309
tp1821
a(F1162.0350027740453
I309
tp1822
a(F1181.1476202798226
I309
tp1823
a(F1179.893595935163
I309
tp1824
a(F1227.3716883931306
I309
tp1825
a(F1198.4717144343233
I309
tp1826
a(F1137.352724510258
I309
tp1827
a(F1124.2511164641262
I309
tp1828
a(F1108.4532365324621
I309
tp1829
a(F1105.631936689281
I309
tp1830
a(F1369.7915944049175
I256
tp1831
a(F1343.3716151064777
I256
tp1832
a(F1347.2891194114452
I256
tp1833
a(F1371.1600573426035
I256
tp1834
a(F1390.0870187487233
I256
tp1835
a(F1428.8252789834303
I256
tp1836
a(F1481.7305379894276
I256
tp1837
a(F1535.3286645995918
I256
tp1838
a(F1504.5604796729056
I256
tp1839
a(F1881.6155937355825
I74
tp1840
a(F1848.274982069676
I74
tp1841
a(F1857.7601061660914
I74
tp1842
a(F1818.425522651136
I74
tp1843
a(F1854.588865881713
I74
tp1844
a(F1860.2725046290718
I74
tp1845
a(F1809.125004192782
I74
tp1846
a(F1854.1597317398137
I74
tp1847
a(F1849.8961700855646
I74
tp1848
a(F1823.3051269808325
I74
tp1849
a(F1844.6844269337507
I74
tp1850
a(F1853.7355289218108
I74
tp1851
a(F1839.502881749297
I74
tp1852
a(F1869.477163860435
I74
tp1853
a(F1882.1192794290473
I74
tp1854
a(F1884.6715554467137
I74
tp1855
a(F1875.8581563819855
I74
tp1856
a(F1166.4419625771359
I321
tp1857
a(F1058.9335565698748
I309
tp1858
a(F1177.9921521183126
I309
tp1859
a(F1172.9982855942585
I309
tp1860
a(F1236.7126205060583
I309
tp1861
a(F1219.952477591135
I309
tp1862
a(F1175.7570080701348
I309
tp1863
a(F1257.337160377843
I309
tp1864
a(F1204.996435322247
I309
tp1865
a(F1205.1588107943792
I309
tp1866
a(F1205.3244830050214
I309
tp1867
a(F1270.973008091158
I309
tp1868
a(F1224.8605072662806
I309
tp1869
a(F1171.871684841992
I309
tp1870
a(F1257.1679323044887
I309
tp1871
a(F1187.7837759768279
I309
tp1872
a(F1155.3292792664206
I309
tp1873
a(F1114.3518368043922
I309
tp1874
a(F1371.8454693396232
I256
tp1875
a(F1306.9678969590782
I256
tp1876
a(F1397.4627663166964
I256
tp1877
a(F1438.8787040975153
I256
tp1878
a(F1318.1556603535303
I256
tp1879
a(F1471.8277514672122
I256
tp1880
a(F1342.6826802065004
I256
tp1881
a(F1372.2557746562802
I256
tp1882
a(F1379.9355424956477
I256
tp1883
a(F1506.9901568983232
I256
tp1884
a(F1501.641526687344
I256
tp1885
a(F1909.087071532327
I74
tp1886
a(F1888.537881816489
I74
tp1887
a(F1912.5794238268384
I74
tp1888
a(F1922.1602669488263
I74
tp1889
a(F1888.530911771599
I74
tp1890
a(F1887.2096592243468
I74
tp1891
a(F1917.0651142571141
I74
tp1892
a(F1887.796772496078
I74
tp1893
a(F1196.5700807839587
I309
tp1894
a(F1138.8859063980576
I321
tp1895
a(F1225.2499328668325
I309
tp1896
a(F1105.8071805246473
I321
tp1897
a(F1211.8645481484866
I309
tp1898
a(F1059.350247764679
I321
tp1899
a(F1048.0368512580687
I321
tp1900
a(F1201.5888745170976
I309
tp1901
a(F1253.720883412522
I309
tp1902
a(F1272.8186413408137
I309
tp1903
a(F1246.2834070666388
I309
tp1904
a(F1243.9166543174388
I309
tp1905
a(F1278.2748056847129
I309
tp1906
a(F1232.805498754889
I309
tp1907
a(F1200.326631300868
I309
tp1908
a(F1230.4597788195115
I309
tp1909
a(F1277.5579991502048
I309
tp1910
a(F1277.8883914460896
I309
tp1911
a(F1236.05473607189
I309
tp1912
a(F1239.9767082367432
I309
tp1913
a(F1273.1916990530672
I309
tp1914
a(F1269.49168270356
I309
tp1915
a(F1267.257943488124
I309
tp1916
a(F1248.3256523173868
I309
tp1917
a(F1255.9432432755987
I309
tp1918
a(F1168.904715505538
I309
tp1919
a(F1259.8858679073571
I309
tp1920
a(F1167.1815227460315
I309
tp1921
a(F1150.171107732393
I309
tp1922
a(F1120.6385984951394
I309
tp1923
a(F1114.5684942525022
I309
tp1924
a(F1287.7933181080457
I256
tp1925
a(F1293.802669928959
I256
tp1926
a(F1317.1800305691675
I256
tp1927
a(F1327.8383477787165
I256
tp1928
a(F1366.2689491582823
I256
tp1929
a(F1398.717281655467
I256
tp1930
a(F1446.560384393109
I256
tp1931
a(F1479.473274638494
I256
tp1932
a(F1383.1438271481118
I256
tp1933
a(F1396.373960687457
I256
tp1934
a(F1410.6996512877374
I256
tp1935
a(F1422.106242765849
I256
tp1936
a(F1423.3552469739197
I256
tp1937
a(F1432.3886520642666
I256
tp1938
a(F1912.757587525539
I256
tp1939
a(F1898.343162278106
I256
tp1940
a(F1891.5124654299457
I256
tp1941
a(F1908.4794450969341
I256
tp1942
a(F1959.7251707717933
I74
tp1943
a(F1962.0465766042264
I74
tp1944
a(F1953.1942736678752
I74
tp1945
a(F1961.1037696199937
I74
tp1946
a(F1946.7884117706615
I74
tp1947
a(F1944.700847059452
I74
tp1948
a(F1956.907348595874
I74
tp1949
a(F1953.65412122111
I74
tp1950
a(F1938.2112745965026
I74
tp1951
a(F1936.1311113310276
I74
tp1952
a(F1932.8982378427515
I74
tp1953
a(F1949.4862462249803
I74
tp1954
a(F1946.2396920852066
I74
tp1955
a(F1930.826946079978
I74
tp1956
a(F1927.601916505643
I74
tp1957
a(F1944.1692043834505
I74
tp1958
a(F1940.8636950185294
I74
tp1959
a(F1937.6273980981314
I74
tp1960
a(F1931.029753420836
I74
tp1961
a(F1928.975171270421
I74
tp1962
a(F1235.996725724039
I321
tp1963
a(F1286.5066258900956
I321
tp1964
a(F1201.3877432470665
I321
tp1965
a(F1275.9353977133917
I321
tp1966
a(F1132.7567477719813
I321
tp1967
a(F1228.9974518874255
I309
tp1968
a(F1085.3311246747028
I321
tp1969
a(F1042.9676466440517
I309
tp1970
a(F1113.4837482506177
I309
tp1971
a(F1268.734982698589
I256
tp1972
a(F1278.7896785270411
I256
tp1973
a(F1355.1013879365573
I256
tp1974
a(F1378.9881248153379
I256
tp1975
a(F1299.3802018749968
I256
tp1976
a(F1404.553888432315
I256
tp1977
a(F1437.129711337072
I256
tp1978
a(F1454.5651121390495
I256
tp1979
a(F1431.6112476283445
I256
tp1980
a(F1414.0128614434852
I256
tp1981
a(F1399.1726901782968
I256
tp1982
a(F1409.5592818601824
I256
tp1983
a(F1408.5063296145513
I256
tp1984
a(F1919.7457139834926
I256
tp1985
a(F1924.9825463618931
I256
tp1986
a(F1922.5613221248814
I256
tp1987
a(F1261.5047903347581
I321
tp1988
a(F1245.5792093995626
I321
tp1989
a(F1284.3523662626935
I321
tp1990
a(F1213.5573630202423
I321
tp1991
a(F1184.8731597623778
I321
tp1992
a(F1252.412762565982
I309
tp1993
a(F1103.990399472646
I321
tp1994
a(F1119.099818438082
I321
tp1995
a(F1195.3607014978293
I309
tp1996
a(F1185.4523682945821
I309
tp1997
a(F1168.5628992555985
I309
tp1998
a(F1090.167963844352
I321
tp1999
a(F1064.0248823266816
I309
tp2000
a(F1070.329453140722
I309
tp2001
a(F1482.4997214244615
I309
tp2002
a(F1490.1941889913562
I309
tp2003
a(F1493.1449635857884
I309
tp2004
a(F1496.9938312236313
I309
tp2005
a(F1163.752274418092
I309
tp2006
a(F1503.8613684737054
I309
tp2007
a(F1482.7636778042568
I309
tp2008
a(F1506.9490791203286
I309
tp2009
a(F1484.8914012747216
I309
tp2010
a(F1509.0798111516854
I309
tp2011
a(F1493.75565529092
I309
tp2012
a(F1171.716146677264
I309
tp2013
a(F1496.7838167683421
I309
tp2014
a(F1499.7416295874452
I309
tp2015
a(F1509.362970467212
I309
tp2016
a(F1501.8859160673976
I309
tp2017
a(F1507.657878147959
I309
tp2018
a(F1504.846326459817
I309
tp2019
a(F1106.3698345578687
I309
tp2020
a(F1234.8017049555772
I256
tp2021
a(F1234.9085034101454
I256
tp2022
a(F1313.4186790854728
I256
tp2023
a(F1349.1350169364825
I256
tp2024
a(F1251.9262520282825
I256
tp2025
a(F1437.0776241301655
I256
tp2026
a(F1413.6692069842952
I256
tp2027
a(F1456.8364778666134
I256
tp2028
a(F1462.6149450786672
I256
tp2029
a(F1368.132589954729
I256
tp2030
a(F1419.5881976848295
I256
tp2031
a(F1914.312653015146
I256
tp2032
a(F1919.1504577040394
I256
tp2033
a(F1910.2678666738102
I256
tp2034
a(F1925.0762652270575
I256
tp2035
a(F1399.7132993487699
I256
tp2036
a(F1293.873273907291
I321
tp2037
a(F1277.1571600139664
I321
tp2038
a(F1312.3516132896484
I321
tp2039
a(F1247.1641410624331
I321
tp2040
a(F1306.5928223696449
I321
tp2041
a(F1200.303859996729
I321
tp2042
a(F1169.396700842656
I321
tp2043
a(F1293.8266915871181
I321
tp2044
a(F1240.1961482941242
I321
tp2045
a(F1222.6043631189352
I321
tp2046
a(F1145.1754258541107
I321
tp2047
a(F1219.5823263448053
I309
tp2048
a(F1253.2799216194212
I309
tp2049
a(F1159.1792429930906
I309
tp2050
a(F1195.7375851252466
I309
tp2051
a(F1495.663068769486
I309
tp2052
a(F1219.9723275591582
I309
tp2053
a(F1514.7683603345265
I309
tp2054
a(F1099.9144068657115
I309
tp2055
a(F1136.3861152506845
I309
tp2056
a(F1508.5670111588547
I309
tp2057
a(F1155.2135872606557
I309
tp2058
a(F1180.1872289138964
I309
tp2059
a(F1181.425604352995
I309
tp2060
a(F1090.9730861968003
I309
tp2061
a(F1119.450406037969
I309
tp2062
a(F1138.4519939622512
I309
tp2063
a(F996.3260627564271
I256
tp2064
a(F999.5991776934618
I256
tp2065
a(F996.3067369113817
I256
tp2066
a(F997.8736299035917
I256
tp2067
a(F1009.2775298466944
I256
tp2068
a(F1012.4761951104174
I256
tp2069
a(F1001.1512019423897
I256
tp2070
a(F1018.9325220965268
I256
tp2071
a(F1007.654260238733
I256
tp2072
a(F1022.1702734703556
I256
tp2073
a(F1024.5962379310504
I256
tp2074
a(F1015.7410643577878
I256
tp2075
a(F1026.2161726624606
I256
tp2076
a(F1026.2533848288758
I256
tp2077
a(F1022.2459695255257
I256
tp2078
a(F1025.453387160881
I256
tp2079
a(F1201.7505526473778
I256
tp2080
a(F1194.4564876925028
I256
tp2081
a(F1228.1776153846383
I256
tp2082
a(F1263.4599252659289
I256
tp2083
a(F1319.9304922112385
I256
tp2084
a(F1358.1267164072
I256
tp2085
a(F1323.8674714705294
I256
tp2086
a(F1445.3477517851995
I256
tp2087
a(F1449.096825914767
I256
tp2088
a(F1443.2085363648082
I256
tp2089
a(F1452.791491333147
I256
tp2090
a(F1456.0701597816164
I256
tp2091
a(F1458.366789604886
I256
tp2092
a(F1444.4603101210512
I256
tp2093
a(F1447.7590196256926
I256
tp2094
a(F1457.1205467491225
I256
tp2095
a(F1451.2794757945355
I256
tp2096
a(F1921.3142403810828
I256
tp2097
a(F1918.662993261109
I256
tp2098
a(F1924.8538842128087
I256
tp2099
a(F1917.813099040416
I256
tp2100
a(F1915.1736450415005
I256
tp2101
a(F1928.84121700495
I256
tp2102
a(F1915.2567444901492
I256
tp2103
a(F1914.4352887786874
I256
tp2104
a(F1916.4617025511197
I256
tp2105
a(F1925.4185353230812
I256
tp2106
a(F1919.5843575501963
I256
tp2107
a(F1923.515147441043
I256
tp2108
a(F1344.3097369534803
I321
tp2109
a(F1330.3176557320378
I321
tp2110
a(F1292.5207755007273
I321
tp2111
a(F1336.1730760872854
I321
tp2112
a(F1271.7924702787006
I321
tp2113
a(F1330.0464028282424
I321
tp2114
a(F1232.5126254758825
I321
tp2115
a(F1209.5616390721877
I321
tp2116
a(F1259.21318829089
I321
tp2117
a(F1239.074149310104
I321
tp2118
a(F1217.5370928503119
I321
tp2119
a(F1194.2191089008938
I321
tp2120
a(F1178.177741185902
I321
tp2121
a(F1209.2521876573494
I321
tp2122
a(F1221.8530240586667
I321
tp2123
a(F1252.786578052706
I321
tp2124
a(F1131.9038218686007
I321
tp2125
a(F1181.815406069785
I321
tp2126
a(F1232.3827992003671
I321
tp2127
a(F1480.4902290489647
I309
tp2128
a(F1143.9292023041749
I309
tp2129
a(F1168.2916688416055
I309
tp2130
a(F1108.3455381330264
I309
tp2131
a(F1109.426080227482
I309
tp2132
a(F916.4992752969629
I256
tp2133
a(F932.7275637969865
I256
tp2134
a(F937.9498691287666
I256
tp2135
a(F956.7494806628752
I256
tp2136
a(F990.430547976728
I256
tp2137
a(F969.3069247546925
I256
tp2138
a(F957.1083745124935
I256
tp2139
a(F975.9990408288648
I256
tp2140
a(F1009.115045482704
I256
tp2141
a(F1027.9610759929067
I256
tp2142
a(F1011.5462630793952
I256
tp2143
a(F1037.7926128995
I256
tp2144
a(F1051.33074812971
I256
tp2145
a(F1163.2859361154738
I256
tp2146
a(F1068.545374666748
I256
tp2147
a(F1044.3534501991098
I256
tp2148
a(F1104.7662061090957
I256
tp2149
a(F1179.4710770124461
I256
tp2150
a(F1156.6489199192486
I256
tp2151
a(F1206.8675102133825
I256
tp2152
a(F1242.1970755124496
I256
tp2153
a(F1179.1826469826183
I256
tp2154
a(F1202.9168568060252
I256
tp2155
a(F1287.23011617097
I256
tp2156
a(F1242.052758229853
I256
tp2157
a(F1277.7197490090145
I256
tp2158
a(F1299.8824655002345
I256
tp2159
a(F1342.633386953639
I256
tp2160
a(F1331.5720040159974
I256
tp2161
a(F1341.113052512067
I256
tp2162
a(F1242.4057273768585
I321
tp2163
a(F1207.9980954898283
I321
tp2164
a(F1330.3913989289738
I440
tp2165
a(F1347.3943589090763
I440
tp2166
a(F1309.7462759033685
I440
tp2167
a(F1358.8507442746604
I440
tp2168
a(F1374.6627625676974
I321
tp2169
a(F1292.0897102809402
I321
tp2170
a(F1042.5154955299229
I440
tp2171
a(F1045.6043986231125
I440
tp2172
a(F1047.9196335692927
I440
tp2173
a(F1049.249044993609
I440
tp2174
a(F1040.4266232752796
I440
tp2175
a(F1047.9616206808341
I440
tp2176
a(F1039.151364537429
I440
tp2177
a(F1045.225601686067
I440
tp2178
a(F1042.3716028461254
I440
tp2179
a(F1337.3375652971743
I321
tp2180
a(F1261.7743809742735
I321
tp2181
a(F1247.6417421592453
I321
tp2182
a(F1246.3605577147118
I321
tp2183
a(F1248.5901230631002
I321
tp2184
a(F1278.628398659145
I321
tp2185
a(F1244.5612241576703
I321
tp2186
a(F1167.3668663720973
I321
tp2187
a(F1485.8121439509
I309
tp2188
a(F1183.7083366218437
I321
tp2189
a(F1468.824141430138
I309
tp2190
a(F1151.371947272875
I321
tp2191
a(F1246.3806380698356
I309
tp2192
a(F1506.4902950727383
I309
tp2193
a(F1477.1763950479312
I309
tp2194
a(F1516.8221551313509
I309
tp2195
a(F1497.64316991233
I309
tp2196
a(F1178.905736630233
I309
tp2197
a(F1117.9134998788732
I321
tp2198
a(F1137.432014240521
I309
tp2199
a(F896.0395671978156
I256
tp2200
a(F922.9556528812886
I256
tp2201
a(F880.8387898635926
I256
tp2202
a(F885.2433263777607
I256
tp2203
a(F894.2594604844551
I256
tp2204
a(F949.7322887391254
I256
tp2205
a(F912.9681907713612
I256
tp2206
a(F973.3020713415676
I256
tp2207
a(F994.8481254237547
I256
tp2208
a(F1021.4931087075283
I256
tp2209
a(F1010.6392417119681
I256
tp2210
a(F1041.860368740874
I256
tp2211
a(F948.102832079918
I256
tp2212
a(F971.2255349812592
I256
tp2213
a(F1072.6638561447041
I256
tp2214
a(F1092.5351626957265
I256
tp2215
a(F1108.2264589134393
I256
tp2216
a(F1126.452667770609
I256
tp2217
a(F1174.1789198759702
I256
tp2218
a(F998.3224431016224
I256
tp2219
a(F1010.1039279561102
I256
tp2220
a(F1082.651556180065
I256
tp2221
a(F1027.4423971294136
I256
tp2222
a(F1074.176433740263
I256
tp2223
a(F1100.2601786495013
I256
tp2224
a(F1209.9602339748997
I256
tp2225
a(F1128.7075530426528
I256
tp2226
a(F1074.9296077044428
I256
tp2227
a(F1243.5363111178758
I256
tp2228
a(F1155.5401547010763
I256
tp2229
a(F1174.4373217136974
I256
tp2230
a(F1273.6612237832576
I256
tp2231
a(F1303.3443572019164
I256
tp2232
a(F1232.6009717457243
I256
tp2233
a(F1336.0840435160235
I256
tp2234
a(F1259.918257507352
I256
tp2235
a(F1249.828401724396
I256
tp2236
a(F1274.4576907055036
I256
tp2237
a(F1301.6536657059112
I256
tp2238
a(F1350.2946692661403
I256
tp2239
a(F1139.395981486757
I309
tp2240
a(F1272.324670407551
I256
tp2241
a(F1378.4715957152089
I437
tp2242
a(F1382.7464520690733
I437
tp2243
a(F1397.4403762176696
I437
tp2244
a(F1366.156685200251
I437
tp2245
a(F1345.8552886182304
I437
tp2246
a(F1331.7346371532044
I437
tp2247
a(F1370.1762122759417
I440
tp2248
a(F1361.4516719589099
I321
tp2249
a(F1035.4325411077468
I440
tp2250
a(F1043.698759671296
I440
tp2251
a(F1030.0686242585996
I440
tp2252
a(F1344.202587724058
I321
tp2253
a(F1051.930903545631
I440
tp2254
a(F1062.4109831677408
I440
tp2255
a(F1270.9730570134777
I321
tp2256
a(F1274.4410896132792
I321
tp2257
a(F1294.9611653454533
I321
tp2258
a(F1243.8564070905834
I321
tp2259
a(F1256.1341608914806
I309
tp2260
a(F1161.0055474470555
I321
tp2261
a(F1239.951412719885
I321
tp2262
a(F1141.870729955487
I321
tp2263
a(F1163.314431477998
I321
tp2264
a(F1487.8991321369012
I309
tp2265
a(F1158.796494538152
I321
tp2266
a(F1478.2836114591826
I309
tp2267
a(F1173.4572911460994
I321
tp2268
a(F1200.2588696770756
I309
tp2269
a(F1137.4453825922456
I321
tp2270
a(F1191.734236106945
I309
tp2271
a(F1145.1690526584478
I309
tp2272
a(F1124.6048445205395
I309
tp2273
a(F1125.2653931345205
I309
tp2274
a(F825.8056401827314
I256
tp2275
a(F823.6017419733951
I256
tp2276
a(F828.52778215507
I256
tp2277
a(F823.4109816734976
I256
tp2278
a(F824.5605265933422
I256
tp2279
a(F842.8170664018581
I256
tp2280
a(F845.4908525209011
I256
tp2281
a(F834.3494340238326
I256
tp2282
a(F837.1022202792877
I256
tp2283
a(F853.8935517454855
I256
tp2284
a(F870.542691377199
I256
tp2285
a(F863.6077817842178
I256
tp2286
a(F859.046535171557
I256
tp2287
a(F856.7848177963106
I256
tp2288
a(F861.9596023821529
I256
tp2289
a(F839.1161483397356
I256
tp2290
a(F886.0308192882006
I256
tp2291
a(F876.5339185636344
I256
tp2292
a(F892.09351883914
I256
tp2293
a(F841.8401769378787
I256
tp2294
a(F843.8807182977929
I256
tp2295
a(F903.7449255757795
I256
tp2296
a(F849.4429753835822
I256
tp2297
a(F906.4830241180787
I256
tp2298
a(F851.521668330591
I256
tp2299
a(F912.3056752382338
I256
tp2300
a(F915.1290472083776
I256
tp2301
a(F857.1016735953149
I256
tp2302
a(F918.0503544813583
I256
tp2303
a(F859.2177035465982
I256
tp2304
a(F921.8340728773322
I256
tp2305
a(F928.0395996938329
I256
tp2306
a(F931.8496246172704
I256
tp2307
a(F941.2961721176539
I256
tp2308
a(F944.3253163780583
I256
tp2309
a(F947.4793581657899
I256
tp2310
a(F953.451855111847
I256
tp2311
a(F957.3228620792886
I256
tp2312
a(F876.4040240025657
I256
tp2313
a(F880.0311078335804
I256
tp2314
a(F882.2372322469728
I256
tp2315
a(F969.4707673656385
I256
tp2316
a(F885.163466977694
I256
tp2317
a(F887.3870328599417
I256
tp2318
a(F890.2718600009836
I256
tp2319
a(F893.254458909797
I256
tp2320
a(F899.0531338904599
I256
tp2321
a(F983.9198435685585
I256
tp2322
a(F902.0051514638637
I256
tp2323
a(F985.996572505187
I256
tp2324
a(F989.0300933651023
I256
tp2325
a(F906.558359345579
I256
tp2326
a(F992.8070421722434
I256
tp2327
a(F909.7908875120542
I256
tp2328
a(F1005.1883523866129
I256
tp2329
a(F912.7939715260268
I256
tp2330
a(F1011.7038429303195
I256
tp2331
a(F1015.631406994809
I256
tp2332
a(F1028.0366140727942
I256
tp2333
a(F1025.450727449279
I256
tp2334
a(F1037.2582256611483
I256
tp2335
a(F1034.648994226406
I256
tp2336
a(F919.822256146402
I256
tp2337
a(F1040.5553348449353
I256
tp2338
a(F1043.7117341149524
I256
tp2339
a(F1050.3847794648893
I256
tp2340
a(F1053.5067268787604
I256
tp2341
a(F1066.9422121185946
I256
tp2342
a(F1072.7540756101816
I256
tp2343
a(F1070.0818759750375
I256
tp2344
a(F1076.1640982117813
I256
tp2345
a(F1080.2061196097047
I256
tp2346
a(F1081.831110286869
I256
tp2347
a(F1087.0023550433152
I256
tp2348
a(F1093.8215386286633
I256
tp2349
a(F1096.9806115395945
I256
tp2350
a(F1100.4277348174683
I256
tp2351
a(F944.5607594898123
I256
tp2352
a(F1103.6001454343864
I256
tp2353
a(F947.5543588995888
I256
tp2354
a(F1113.8793655341672
I256
tp2355
a(F1118.0281987097896
I256
tp2356
a(F1121.4528413352025
I256
tp2357
a(F953.848719364093
I256
tp2358
a(F1124.6963538794432
I256
tp2359
a(F1128.1290134174617
I256
tp2360
a(F962.9344710043981
I256
tp2361
a(F966.082580899589
I256
tp2362
a(F972.1894537794427
I256
tp2363
a(F975.3547624481347
I256
tp2364
a(F978.4514835852793
I256
tp2365
a(F981.6291989954864
I256
tp2366
a(F984.6730587624061
I256
tp2367
a(F1167.103260282592
I256
tp2368
a(F987.8627497880457
I256
tp2369
a(F1171.3151532588117
I256
tp2370
a(F990.9784173714235
I256
tp2371
a(F994.1800659147502
I256
tp2372
a(F1184.4331490613997
I256
tp2373
a(F1188.4335801451084
I256
tp2374
a(F1009.619536843404
I256
tp2375
a(F1012.9023354048073
I256
tp2376
a(F1198.3045482816628
I256
tp2377
a(F1202.3224432738402
I256
tp2378
a(F1019.1583808341666
I256
tp2379
a(F1023.1494093876192
I256
tp2380
a(F1215.4971005270982
I256
tp2381
a(F1218.6076029347
I256
tp2382
a(F1228.5569694736405
I256
tp2383
a(F1045.0529922792862
I256
tp2384
a(F1113.6458451057235
I256
tp2385
a(F1106.3548125087364
I256
tp2386
a(F1231.67668321309
I256
tp2387
a(F1104.737756710516
I256
tp2388
a(F1048.3843203122187
I256
tp2389
a(F1122.6449227157732
I256
tp2390
a(F1120.1822426638907
I256
tp2391
a(F1235.0220941560979
I256
tp2392
a(F1104.7964973938474
I256
tp2393
a(F1128.3360367456137
I256
tp2394
a(F1125.8621080020407
I256
tp2395
a(F1101.691057594631
I256
tp2396
a(F1054.734442267114
I256
tp2397
a(F1238.1514598490191
I256
tp2398
a(F1131.6189897442132
I256
tp2399
a(F1101.7210572639515
I256
tp2400
a(F1241.502596675487
I256
tp2401
a(F1138.22114067521
I256
tp2402
a(F1100.2333898880365
I256
tp2403
a(F1058.0256651129077
I256
tp2404
a(F1061.0358903427102
I256
tp2405
a(F1142.2838018400923
I256
tp2406
a(F1100.2890675298845
I256
tp2407
a(F1097.9511220476907
I256
tp2408
a(F1064.2519249315549
I256
tp2409
a(F1148.9206808225333
I256
tp2410
a(F1068.1163417469086
I256
tp2411
a(F1247.7866980680249
I256
tp2412
a(F1153.0592663518978
I256
tp2413
a(F1090.6619534031802
I256
tp2414
a(F1088.3745268921357
I256
tp2415
a(F1162.2049574194111
I256
tp2416
a(F1159.6699002743217
I256
tp2417
a(F1250.0138504430677
I256
tp2418
a(F1074.515592820137
I256
tp2419
a(F1165.5118407880896
I256
tp2420
a(F1084.1969918514258
I256
tp2421
a(F1081.9722693542938
I256
tp2422
a(F1168.8351144407764
I256
tp2423
a(F1080.5994513121975
I256
tp2424
a(F1253.1794415389907
I256
tp2425
a(F1172.1539615896272
I256
tp2426
a(F1255.4225165735943
I256
tp2427
a(F1178.8825281225097
I256
tp2428
a(F1184.7177830024564
I256
tp2429
a(F1182.1497958863993
I256
tp2430
a(F1256.7480151452414
I256
tp2431
a(F1188.0430100738108
I256
tp2432
a(F1256.0788590109528
I256
tp2433
a(F1302.6832465812647
I256
tp2434
a(F1294.1953267430324
I256
tp2435
a(F1292.1050685425087
I256
tp2436
a(F1244.3393878609875
I256
tp2437
a(F1306.0188304135584
I256
tp2438
a(F1309.6361528793102
I256
tp2439
a(F1244.1127671989802
I256
tp2440
a(F1293.4134025617088
I256
tp2441
a(F1242.1871607327298
I256
tp2442
a(F1241.095011871172
I256
tp2443
a(F1235.7694352311455
I256
tp2444
a(F1316.3653876584726
I256
tp2445
a(F1295.6649307372093
I256
tp2446
a(F1319.9343584791566
I256
tp2447
a(F1323.3350013561408
I256
tp2448
a(F1298.8547480766435
I256
tp2449
a(F1302.250426101109
I256
tp2450
a(F1334.124089199448
I256
tp2451
a(F1311.4558874533204
I256
tp2452
a(F1344.289887703637
I256
tp2453
a(F1313.7334307841818
I256
tp2454
a(F1346.515757426647
I256
tp2455
a(F1316.9470578366163
I256
tp2456
a(F1349.6998521009184
I256
tp2457
a(F1320.2988456324028
I256
tp2458
a(F1353.1183401966437
I256
tp2459
a(F1322.593219771769
I256
tp2460
a(F1355.361289472486
I256
tp2461
a(F1357.9738904748883
I256
tp2462
a(F1357.5629006017568
I256
tp2463
a(F1358.894092481744
I256
tp2464
a(F1342.9744225450668
I256
tp2465
a(F1358.5610748897946
I256
tp2466
a(F1356.4912180365397
I256
tp2467
a(F1353.6817717477973
I256
tp2468
a(F1157.8609766641455
I321
tp2469
a(F1456.5041138995805
I437
tp2470
a(F1438.2910783232708
I437
tp2471
a(F1461.5090271347556
I437
tp2472
a(F1449.9700469651643
I437
tp2473
a(F1394.2783448999533
I437
tp2474
a(F1369.420652531656
I437
tp2475
a(F1430.1169074832565
I437
tp2476
a(F1357.5817057649524
I437
tp2477
a(F1344.193645661833
I437
tp2478
a(F1389.2970855280266
I437
tp2479
a(F1378.3276953602522
I440
tp2480
a(F1305.9644889087854
I440
tp2481
a(F1288.8749239035176
I440
tp2482
a(F1288.572878790416
I440
tp2483
a(F1283.6367218985295
I440
tp2484
a(F1359.6579012196976
I440
tp2485
a(F1272.7661709229883
I440
tp2486
a(F1037.8642655985427
I440
tp2487
a(F1041.8263933143576
I440
tp2488
a(F1035.0170210225542
I440
tp2489
a(F1044.9211615267452
I440
tp2490
a(F1359.6651493508737
I321
tp2491
a(F1033.4153249330118
I440
tp2492
a(F1051.3630361613455
I440
tp2493
a(F1032.2205354508321
I440
tp2494
a(F1030.6484530655457
I440
tp2495
a(F1058.474011871053
I440
tp2496
a(F1030.0748680588233
I440
tp2497
a(F1059.8694418683851
I440
tp2498
a(F1266.3365016966384
I321
tp2499
a(F1030.6416612025746
I440
tp2500
a(F1062.2609066544821
I440
tp2501
a(F1033.0514187621072
I440
tp2502
a(F1035.9185459322573
I440
tp2503
a(F1038.3497646777807
I440
tp2504
a(F1067.9467373452678
I440
tp2505
a(F1044.575623785278
I440
tp2506
a(F1051.1166604171026
I440
tp2507
a(F1054.23158452325
I440
tp2508
a(F1057.5061388977383
I440
tp2509
a(F1067.3608732787625
I440
tp2510
a(F1063.7383295747138
I440
tp2511
a(F1088.8426120456538
I440
tp2512
a(F1096.7197608351928
I440
tp2513
a(F1320.1809896015748
I321
tp2514
a(F1100.003288088905
I440
tp2515
a(F1087.3744680681086
I440
tp2516
a(F1103.4560407222402
I440
tp2517
a(F1086.8998269419324
I440
tp2518
a(F1105.2010718849046
I321
tp2519
a(F1315.8015779025634
I321
tp2520
a(F1087.5723583548554
I321
tp2521
a(F1104.7480657125145
I321
tp2522
a(F1090.9663194368295
I321
tp2523
a(F1101.9252033098899
I321
tp2524
a(F1096.366320076252
I321
tp2525
a(F1253.6793933728575
I321
tp2526
a(F1267.2868473625394
I321
tp2527
a(F1482.7333329896928
I309
tp2528
a(F1256.5508129629643
I321
tp2529
a(F1191.5911675941372
I321
tp2530
a(F1463.2866918322027
I309
tp2531
a(F1168.1714049146128
I321
tp2532
a(F1455.6100698509906
I309
tp2533
a(F1164.4455088296959
I321
tp2534
a(F1135.2890229090942
I321
tp2535
a(F1151.34876670885
I321
tp2536
a(F1145.723865506467
I321
tp2537
a(F1167.9471299577121
I321
tp2538
a(F1161.9319007710728
I321
tp2539
a(F1166.7745330932617
I309
tp2540
a(F1135.2039233082496
I309
tp2541
a(F1121.7307801143015
I321
tp2542
a(F1142.8981639151323
I309
tp2543
a(F1135.6978170428056
I309
tp2544
a(F1122.5131200909566
I309
tp2545
a(F1495.2582678096421
I432
tp2546
a(F1443.9173378307219
I437
tp2547
a(F1505.0963247870784
I432
tp2548
a(F1416.415536940167
I437
tp2549
a(F1489.7134242456896
I437
tp2550
a(F1402.5814608956778
I437
tp2551
a(F1453.173312974533
I437
tp2552
a(F1432.9600951273912
I437
tp2553
a(F1416.710205141615
I437
tp2554
a(F1349.180755039602
I437
tp2555
a(F1403.3443904787143
I437
tp2556
a(F1329.0527999727299
I437
tp2557
a(F1310.828702725118
I440
tp2558
a(F1373.456238234551
I440
tp2559
a(F1290.0979523217618
I440
tp2560
a(F1370.044546243786
I440
tp2561
a(F1277.256690002417
I440
tp2562
a(F1285.7943784676324
I440
tp2563
a(F1343.5709064112666
I321
tp2564
a(F1293.1003600060224
I321
tp2565
a(F1109.9995307171082
I440
tp2566
a(F1089.6683633124865
I440
tp2567
a(F1091.7982507749568
I321
tp2568
a(F1118.9947738160681
I321
tp2569
a(F1113.0830596908881
I321
tp2570
a(F1252.9809847153779
I321
tp2571
a(F1250.2788989310816
I321
tp2572
a(F1256.9242458184654
I321
tp2573
a(F1258.0933433208834
I321
tp2574
a(F1175.0720926759943
I321
tp2575
a(F1245.462763313427
I321
tp2576
a(F1157.4943880353196
I321
tp2577
a(F1256.7453657063224
I321
tp2578
a(F1247.574219252834
I321
tp2579
a(F1250.4388155245013
I321
tp2580
a(F1254.141849719687
I321
tp2581
a(F1354.9274323720506
I321
tp2582
a(F1352.2859209458325
I321
tp2583
a(F1349.562591746792
I321
tp2584
a(F1361.7395013541752
I321
tp2585
a(F1347.0163109540722
I321
tp2586
a(F1344.3882649630343
I321
tp2587
a(F1228.9640095089915
I321
tp2588
a(F1343.7264728464338
I321
tp2589
a(F1365.3365853372
I309
tp2590
a(F1156.2492803970297
I321
tp2591
a(F1342.1371851358258
I321
tp2592
a(F1365.629046063478
I309
tp2593
a(F1340.8498340382184
I321
tp2594
a(F1362.3700280394623
I309
tp2595
a(F1341.1762430293213
I309
tp2596
a(F1176.2062085201521
I321
tp2597
a(F1342.3523762858415
I309
tp2598
a(F1354.4979455865723
I309
tp2599
a(F1348.0861340716494
I309
tp2600
a(F1351.7976451067834
I309
tp2601
a(F1225.344280312456
I321
tp2602
a(F1155.1712393875496
I321
tp2603
a(F1179.9142026362777
I321
tp2604
a(F1439.9640219427454
I309
tp2605
a(F1193.4616027028092
I321
tp2606
a(F1135.135161068683
I321
tp2607
a(F1116.5415434003967
I309
tp2608
a(F1180.4498854415815
I321
tp2609
a(F1519.6027222545542
I432
tp2610
a(F1490.795669549535
I432
tp2611
a(F1538.1052572664462
I432
tp2612
a(F1462.5766123611083
I432
tp2613
a(F1439.7079041019078
I432
tp2614
a(F1494.2730356308582
I437
tp2615
a(F1390.389420892246
I437
tp2616
a(F1473.905459731955
I437
tp2617
a(F1375.7793642531788
I437
tp2618
a(F1362.2747201453474
I437
tp2619
a(F1403.8723567170616
I437
tp2620
a(F1345.2115213686716
I437
tp2621
a(F1330.355481655222
I437
tp2622
a(F1373.4794705763036
I440
tp2623
a(F1321.1061752513365
I440
tp2624
a(F1363.2047974720895
I440
tp2625
a(F1308.2356190383139
I440
tp2626
a(F1297.44843606715
I440
tp2627
a(F1348.3265467975468
I440
tp2628
a(F1301.1301883108888
I440
tp2629
a(F1326.6089214939507
I440
tp2630
a(F1313.252575935599
I440
tp2631
a(F1099.0608051347417
I440
tp2632
a(F1118.1207722845095
I440
tp2633
a(F1095.0189769877384
I440
tp2634
a(F1110.242935495365
I321
tp2635
a(F1122.872934720818
I321
tp2636
a(F1133.556596570703
I321
tp2637
a(F1129.261408368442
I321
tp2638
a(F1159.1261103757402
I321
tp2639
a(F1474.2538291449935
I309
tp2640
a(F1165.5923270451563
I321
tp2641
a(F1150.0711682432106
I321
tp2642
a(F1162.0842827198267
I321
tp2643
a(F1368.3987850660715
I321
tp2644
a(F1450.04327212346
I309
tp2645
a(F1230.7122489074188
I321
tp2646
a(F1208.9615962760458
I321
tp2647
a(F1277.2636970204348
I321
tp2648
a(F1206.57534222298
I321
tp2649
a(F1350.9748741848734
I321
tp2650
a(F1289.559533507092
I321
tp2651
a(F1349.5224967574936
I321
tp2652
a(F1373.5912963592612
I321
tp2653
a(F1464.49853192363
I309
tp2654
a(F1428.5779877788375
I309
tp2655
a(F1156.1202374789546
I321
tp2656
a(F1370.574932307315
I321
tp2657
a(F1394.778472195078
I309
tp2658
a(F1219.6488542131276
I321
tp2659
a(F1227.4053597272268
I321
tp2660
a(F1418.5324003605297
I309
tp2661
a(F1255.6642937317033
I321
tp2662
a(F1456.1792240380778
I309
tp2663
a(F1414.6932904703067
I309
tp2664
a(F1413.831416274446
I309
tp2665
a(F1417.7762945575043
I309
tp2666
a(F1457.4319182079187
I309
tp2667
a(F1131.2021641168067
I321
tp2668
a(F1116.4931491096397
I309
tp2669
a(F1132.9631835487735
I309
tp2670
a(F1539.471286263301
I432
tp2671
a(F1517.0050692371715
I432
tp2672
a(F1459.2221640137166
I432
tp2673
a(F1521.698579376756
I432
tp2674
a(F1418.5646116101893
I437
tp2675
a(F1465.0636059055505
I437
tp2676
a(F1396.6538257388788
I437
tp2677
a(F1378.7187677322866
I437
tp2678
a(F1449.7267907066396
I437
tp2679
a(F1408.9517588437952
I437
tp2680
a(F1377.2363832747576
I437
tp2681
a(F1365.2667392021076
I437
tp2682
a(F1384.213806065563
I437
tp2683
a(F1374.1390941240265
I437
tp2684
a(F1107.5320537122166
I440
tp2685
a(F1105.0168550750707
I440
tp2686
a(F1113.0117923903592
I440
tp2687
a(F1104.661147139701
I440
tp2688
a(F1114.6009375556796
I440
tp2689
a(F1117.9348147365301
I440
tp2690
a(F1105.497286292463
I440
tp2691
a(F1105.1616397613518
I440
tp2692
a(F1118.7717595649258
I440
tp2693
a(F1106.7774166470872
I440
tp2694
a(F1121.3524200714064
I440
tp2695
a(F1107.6480713656301
I440
tp2696
a(F1129.4915891674448
I440
tp2697
a(F1115.8737607812095
I440
tp2698
a(F1130.1124947435858
I321
tp2699
a(F1118.4684323169658
I321
tp2700
a(F1122.3176186880305
I321
tp2701
a(F1134.9390479781596
I321
tp2702
a(F1122.4314629310652
I321
tp2703
a(F1123.4245367444898
I321
tp2704
a(F1123.5631898204797
I321
tp2705
a(F1138.9327661251875
I321
tp2706
a(F1124.5748273465717
I321
tp2707
a(F1139.0906010996541
I321
tp2708
a(F1140.1191596914646
I321
tp2709
a(F1124.915839439365
I321
tp2710
a(F1140.3013856238058
I321
tp2711
a(F1125.9564585735861
I321
tp2712
a(F1141.3481286783501
I321
tp2713
a(F1126.3751817771783
I321
tp2714
a(F1127.4446110144709
I321
tp2715
a(F1127.6856400014906
I321
tp2716
a(F1142.520594841761
I321
tp2717
a(F1130.9720619942702
I321
tp2718
a(F1141.8267541512466
I321
tp2719
a(F1139.2704689798518
I321
tp2720
a(F1136.6464615453528
I321
tp2721
a(F1382.1281586655518
I321
tp2722
a(F1393.0139426695157
I321
tp2723
a(F1413.9161239612063
I321
tp2724
a(F1251.1446932591746
I321
tp2725
a(F1350.3739326776595
I321
tp2726
a(F1322.9604798336086
I321
tp2727
a(F1358.8638999503514
I321
tp2728
a(F1166.9035241264387
I321
tp2729
a(F1486.5268834325752
I309
tp2730
a(F1170.974632671196
I321
tp2731
a(F1158.8411804410323
I321
tp2732
a(F1398.1374508926963
I309
tp2733
a(F1407.5577593526004
I309
tp2734
a(F1441.408945719474
I309
tp2735
a(F1120.7360409439398
I321
tp2736
a(F1131.5295468761203
I321
tp2737
a(F1134.4373067567387
I321
tp2738
a(F1119.8081003844795
I321
tp2739
a(F1133.7750987945963
I321
tp2740
a(F1118.1391317824284
I321
tp2741
a(F1130.3276329668602
I321
tp2742
a(F1119.0329172026902
I321
tp2743
a(F1127.1288297641806
I321
tp2744
a(F1121.904220213864
I321
tp2745
a(F1125.384391029873
I321
tp2746
a(F1545.1473224517588
I432
tp2747
a(F1589.4926608045594
I432
tp2748
a(F1560.0035905568366
I432
tp2749
a(F1545.9121226085022
I432
tp2750
a(F1444.4362238896824
I432
tp2751
a(F1513.3306788810382
I437
tp2752
a(F1487.6176529369804
I437
tp2753
a(F1411.4794797353911
I437
tp2754
a(F1449.802631239905
I437
tp2755
a(F1421.4344034112207
I437
tp2756
a(F1411.5448328027787
I437
tp2757
a(F1406.948709640904
I437
tp2758
a(F1466.9201809699184
I321
tp2759
a(F1464.401023141693
I321
tp2760
a(F1424.4121553694515
I321
tp2761
a(F1385.8107279996518
I321
tp2762
a(F1310.1894525155649
I321
tp2763
a(F1356.5641559492371
I321
tp2764
a(F1367.8147611981524
I321
tp2765
a(F1336.1776697741082
I321
tp2766
a(F1493.6985286575898
I309
tp2767
a(F1166.926325560255
I321
tp2768
a(F1161.8179734336866
I321
tp2769
a(F1169.9669328624457
I321
tp2770
a(F1161.2975631816155
I321
tp2771
a(F1171.2296635474863
I321
tp2772
a(F1262.9543074908784
I321
tp2773
a(F1347.8581353666582
I321
tp2774
a(F1312.5014089631136
I321
tp2775
a(F1236.1541337772912
I321
tp2776
a(F1162.3231623655954
I321
tp2777
a(F1172.2533976464126
I321
tp2778
a(F1224.0274038936434
I321
tp2779
a(F1380.5249949804534
I321
tp2780
a(F1164.5012114701979
I321
tp2781
a(F1171.759811203456
I321
tp2782
a(F1165.7964540594376
I321
tp2783
a(F1169.3570541735994
I321
tp2784
a(F1262.771202366535
I321
tp2785
a(F1397.874718930056
I321
tp2786
a(F1372.49858601732
I321
tp2787
a(F1579.0113868466428
I432
tp2788
a(F1601.757988719315
I432
tp2789
a(F1619.301572856895
I432
tp2790
a(F1564.5921420831148
I432
tp2791
a(F1536.1278026502573
I432
tp2792
a(F1526.5323816719167
I432
tp2793
a(F1611.1889059794325
I432
tp2794
a(F1496.2996171907785
I432
tp2795
a(F1570.6764063566827
I432
tp2796
a(F1468.3777491617323
I432
tp2797
a(F1515.801159453725
I432
tp2798
a(F1462.9951609947882
I437
tp2799
a(F1463.8407547087031
I437
tp2800
a(F1494.5706458818543
I321
tp2801
a(F1423.9707624210573
I321
tp2802
a(F1336.7787249555313
I321
tp2803
a(F1337.9209109397787
I321
tp2804
a(F1249.1772742311282
I321
tp2805
a(F1414.4878756066755
I321
tp2806
a(F1289.0277561885307
I321
tp2807
a(F1465.9263146649616
I321
tp2808
a(F1260.098053949155
I321
tp2809
a(F1518.5649243047199
I309
tp2810
a(F1494.1643457514353
I309
tp2811
a(F1638.7813193087297
I432
tp2812
a(F1616.7541445521997
I432
tp2813
a(F1650.5154189550892
I432
tp2814
a(F1592.9845268000065
I432
tp2815
a(F1637.4985410118757
I432
tp2816
a(F1571.6361316888701
I432
tp2817
a(F1606.6079920769355
I432
tp2818
a(F1509.4471187825445
I432
tp2819
a(F1587.8610299039985
I432
tp2820
a(F1555.8479458108118
I432
tp2821
a(F1505.5705760391377
I432
tp2822
a(F1517.7201604124302
I432
tp2823
a(F1523.6868391990065
I432
tp2824
a(F1484.6798641303617
I321
tp2825
a(F1533.2826906893997
I321
tp2826
a(F1307.8805594666276
I321
tp2827
a(F1413.3383999113605
I321
tp2828
a(F1232.1750413627262
I321
tp2829
a(F1343.7720049947864
I321
tp2830
a(F1512.2042487339522
I309
tp2831
a(F1261.1767927573787
I321
tp2832
a(F1220.5804551668514
I321
tp2833
a(F1238.4273822517332
I321
tp2834
a(F1537.029529781892
I321
tp2835
a(F1537.186750390503
I309
tp2836
a(F1635.9269765949618
I77
tp2837
a(F1631.9995822332937
I77
tp2838
a(F1638.34716651151
I77
tp2839
a(F1640.4758475231888
I77
tp2840
a(F1633.6611296333535
I77
tp2841
a(F1641.390814258117
I77
tp2842
a(F1634.579910955388
I77
tp2843
a(F1638.9590865483572
I77
tp2844
a(F1636.6918120316438
I77
tp2845
a(F1641.5576238151511
I77
tp2846
a(F1279.333862206243
I321
tp2847
a(F1672.0922686268727
I432
tp2848
a(F1646.791154481419
I432
tp2849
a(F1624.7504390973234
I432
tp2850
a(F1676.8751340966119
I432
tp2851
a(F1630.7865263242531
I432
tp2852
a(F1552.5489491762191
I432
tp2853
a(F1545.6106473718742
I432
tp2854
a(F1549.3207870668393
I432
tp2855
a(F1577.3395306654172
I432
tp2856
a(F1540.5396593241228
I321
tp2857
a(F1445.6043793984345
I321
tp2858
a(F1528.9304877399336
I321
tp2859
a(F1350.7542304266294
I321
tp2860
a(F1387.301691110537
I321
tp2861
a(F1450.1211380813384
I321
tp2862
a(F1333.9768707893802
I321
tp2863
a(F1221.4088015285224
I321
tp2864
a(F1289.8809006772608
I321
tp2865
a(F1312.9658005471726
I321
tp2866
a(F1507.0204493667416
I321
tp2867
a(F1244.4023680886107
I321
tp2868
a(F1335.4367203041033
I321
tp2869
a(F1232.8656237838939
I321
tp2870
a(F1658.6175889716028
I77
tp2871
a(F1652.6100529770165
I77
tp2872
a(F1664.0601050097987
I77
tp2873
a(F1657.8481117187687
I77
tp2874
a(F1664.9909404886328
I77
tp2875
a(F1710.227640399603
I432
tp2876
a(F1727.4629766176788
I432
tp2877
a(F1728.1715985589008
I432
tp2878
a(F1670.9168803634332
I432
tp2879
a(F1726.399813171537
I432
tp2880
a(F1653.347138120558
I432
tp2881
a(F1705.1371783918178
I432
tp2882
a(F1618.4612416529633
I432
tp2883
a(F1685.9848966292022
I432
tp2884
a(F1600.6707722352887
I432
tp2885
a(F1589.1740055697333
I432
tp2886
a(F1657.1351871468512
I432
tp2887
a(F1642.7617917957762
I432
tp2888
a(F1569.5588790498064
I432
tp2889
a(F1579.2614142933764
I432
tp2890
a(F1597.4372572805787
I432
tp2891
a(F1483.0958748612898
I321
tp2892
a(F1543.4776463708404
I321
tp2893
a(F1501.306632889199
I321
tp2894
a(F1342.5432558227758
I321
tp2895
a(F1464.400943038266
I321
tp2896
a(F1475.517089486938
I321
tp2897
a(F1237.9721762021145
I321
tp2898
a(F1223.190735110811
I321
tp2899
a(F1503.1237073038267
I321
tp2900
a(F1386.634484745525
I321
tp2901
a(F1399.041946352753
I321
tp2902
a(F1547.3801253651382
I321
tp2903
a(F1267.4447374459346
I257
tp2904
a(F1272.60329842233
I257
tp2905
a(F1275.3052302493682
I257
tp2906
a(F1296.0676683743768
I257
tp2907
a(F1298.7985510276003
I257
tp2908
a(F1301.408149847462
I257
tp2909
a(F1304.146252394797
I257
tp2910
a(F1306.7612421454019
I257
tp2911
a(F1304.2186134223793
I257
tp2912
a(F1317.76706764033
I257
tp2913
a(F1320.3959788243048
I257
tp2914
a(F1311.9034570468186
I257
tp2915
a(F1323.1605405397313
I257
tp2916
a(F1314.5185262130747
I257
tp2917
a(F1317.0886272743357
I257
tp2918
a(F1328.9755166854632
I257
tp2919
a(F1319.7116076027346
I257
tp2920
a(F1334.537550704885
I257
tp2921
a(F1337.4660848766946
I257
tp2922
a(F1339.5659780837202
I257
tp2923
a(F1327.4468788826896
I257
tp2924
a(F1342.2327967191316
I74
tp2925
a(F1329.1703683721141
I74
tp2926
a(F1343.144339240002
I74
tp2927
a(F1343.6122345671245
I74
tp2928
a(F1344.0932834444422
I74
tp2929
a(F1344.4214511411449
I74
tp2930
a(F1329.3570655578062
I74
tp2931
a(F1344.920799158992
I74
tp2932
a(F1329.5030994459778
I74
tp2933
a(F1329.525969634464
I74
tp2934
a(F1345.623470138085
I74
tp2935
a(F1346.1498583398734
I74
tp2936
a(F1329.6205287458754
I74
tp2937
a(F1346.3524381225227
I74
tp2938
a(F1346.7350041216207
I74
tp2939
a(F1329.7204125132703
I74
tp2940
a(F1329.840525019621
I74
tp2941
a(F1347.1785569799058
I74
tp2942
a(F1329.9175292026425
I74
tp2943
a(F1346.9541969994605
I74
tp2944
a(F1329.9129319976032
I74
tp2945
a(F1346.6813074630766
I74
tp2946
a(F1329.8251276656986
I77
tp2947
a(F1345.2455607882382
I74
tp2948
a(F1344.5914882180616
I74
tp2949
a(F1329.7924911921752
I77
tp2950
a(F1344.1361396221967
I74
tp2951
a(F1343.7171788038067
I74
tp2952
a(F1329.6284703582019
I77
tp2953
a(F1343.2771673271534
I74
tp2954
a(F1329.6038011780395
I77
tp2955
a(F1329.7371422469523
I77
tp2956
a(F1343.1161025408271
I74
tp2957
a(F1329.8353532250117
I77
tp2958
a(F1343.269770895058
I74
tp2959
a(F1344.3640720381854
I77
tp2960
a(F1344.7940576545882
I77
tp2961
a(F1345.356739666878
I77
tp2962
a(F1345.8049844918437
I77
tp2963
a(F1331.0417958257704
I77
tp2964
a(F1346.097193982326
I77
tp2965
a(F1331.3183546962355
I77
tp2966
a(F1347.0383269525375
I77
tp2967
a(F1331.7468829620334
I77
tp2968
a(F1338.943261203809
I77
tp2969
a(F1337.9429947150559
I77
tp2970
a(F1347.6431106725147
I77
tp2971
a(F1337.3233928272891
I77
tp2972
a(F1332.0495709976756
I77
tp2973
a(F1340.409995357798
I77
tp2974
a(F1348.1365854612402
I77
tp2975
a(F1340.9230608499101
I77
tp2976
a(F1341.3918349159173
I77
tp2977
a(F1336.839128880918
I77
tp2978
a(F1348.8129048637886
I77
tp2979
a(F1341.9224099191024
I77
tp2980
a(F1332.4457055997034
I77
tp2981
a(F1342.4064786431463
I77
tp2982
a(F1349.3267030793884
I77
tp2983
a(F1349.9689815351653
I77
tp2984
a(F1336.7272928773064
I77
tp2985
a(F1343.5120218409256
I77
tp2986
a(F1344.019327424681
I77
tp2987
a(F1350.3224986909947
I77
tp2988
a(F1336.5775903699312
I77
tp2989
a(F1344.5029757524123
I77
tp2990
a(F1333.4565820899802
I77
tp2991
a(F1350.8623726298292
I77
tp2992
a(F1345.0865961978402
I77
tp2993
a(F1350.936952285743
I77
tp2994
a(F1345.5884402695692
I77
tp2995
a(F1334.008866180091
I77
tp2996
a(F1346.1901611774956
I77
tp2997
a(F1336.5164247412345
I77
tp2998
a(F1351.2023713223314
I77
tp2999
a(F1346.7101578911074
I77
tp3000
a(F1328.2679214972034
I81
tp3001
a(F1328.0028868035267
I81
tp3002
a(F1328.0569617003976
I81
tp3003
a(F1350.87662198407
I77
tp3004
a(F1334.7637445177675
I77
tp3005
a(F1350.4209890886218
I77
tp3006
a(F1347.9590677372557
I77
tp3007
a(F1336.7987329164746
I77
tp3008
a(F1328.7273695442893
I79
tp3009
a(F1349.6776827358049
I77
tp3010
a(F1348.6710672225054
I77
tp3011
a(F1328.9352252142621
I79
tp3012
a(F1328.3350932020453
I81
tp3013
a(F1349.2453621276939
I77
tp3014
a(F1337.0938828455883
I77
tp3015
a(F1335.3783929684844
I77
tp3016
a(F1337.2214666999223
I77
tp3017
a(F1329.2350507158935
I79
tp3018
a(F1328.5641235524479
I81
tp3019
a(F1328.7327881318668
I81
tp3020
a(F1336.2043447912793
I77
tp3021
a(F1329.4923166576345
I79
tp3022
a(F1337.8653330717152
I77
tp3023
a(F1329.7326142656214
I79
tp3024
a(F1336.8811651628173
I77
tp3025
a(F1329.3394562414423
I81
tp3026
a(F1337.2241580913396
I77
tp3027
a(F1337.5825388913731
I77
tp3028
a(F1330.064133392181
I81
tp3029
a(F1329.6141509145777
I81
tp3030
a(F1330.1552161341515
I81
tp3031
a(F1337.91790176684
I78
tp3032
a(F1330.1794152543862
I81
tp3033
a(F1330.1144597298762
I81
tp3034
a(F1330.1660407155534
I81
tp3035
a(F1330.1251426421843
I81
tp3036
a(F1338.0719662148908
I78
tp3037
a(F1338.7744628421115
I78
tp3038
a(F1338.7843690341563
I78
tp3039
a(F1338.9637267947867
I78
tp3040
a(F1339.0520103700917
I78
tp3041
a(F1339.2470128315329
I78
tp3042
a(F1339.353196950746
I78
tp3043
a(F1340.2403089708143
I78
tp3044
a(F1340.388940044711
I78
tp3045
a(F1340.6374549057564
I78
tp3046
a(F1340.8039417827588
I78
tp3047
a(F1340.7745559959676
I78
tp3048
a(F1343.791301638087
I78
tp3049
a(F1341.1544503203888
I78
tp3050
a(F1344.1818003009057
I78
tp3051
a(F1341.7361176543561
I78
tp3052
a(F1344.6881468430454
I78
tp3053
a(F1342.2025869875918
I78
tp3054
a(F1345.029939059419
I78
tp3055
a(F1342.7245750771765
I78
tp3056
a(F1345.2638261932802
I78
tp3057
a(F1345.3273995084558
I78
tp3058
a(F1343.2070799449293
I78
tp3059
a(F1343.7495152051904
I78
tp3060
a(F1345.747621761296
I78
tp3061
a(F1344.2480183032385
I78
tp3062
a(F1345.7343946292613
I78
tp3063
a(F1344.8392319932461
I78
tp3064
a(F1345.5998237195872
I78
tp3065
a(F1345.241794326278
I78
tp3066
a(F1681.5494999201196
I77
tp3067
a(F1682.9349942663785
I77
tp3068
a(F1696.2682431308158
I77
tp3069
a(F1634.5607058025112
I77
tp3070
a(F1630.4916747219545
I77
tp3071
a(F1636.9762203865673
I77
tp3072
a(F1629.8847260848431
I77
tp3073
a(F1639.1162828679255
I77
tp3074
a(F1626.6356426835025
I77
tp3075
a(F1624.633519937457
I77
tp3076
a(F1643.005385878453
I77
tp3077
a(F1640.9484751867146
I77
tp3078
a(F1620.778794326235
I77
tp3079
a(F1644.8472833387552
I77
tp3080
a(F1647.389175477854
I77
tp3081
a(F1618.9286321787793
I77
tp3082
a(F1648.5623719791752
I77
tp3083
a(F1650.4303747577126
I77
tp3084
a(F1620.027389802744
I77
tp3085
a(F1651.6207859998865
I77
tp3086
a(F1621.2433324233261
I77
tp3087
a(F1652.1350703794178
I77
tp3088
a(F1653.343609054574
I77
tp3089
a(F1625.003357586763
I77
tp3090
a(F1651.6927945697419
I77
tp3091
a(F1650.0582830576293
I77
tp3092
a(F1648.029592476753
I77
tp3093
a(F1635.351628637784
I77
tp3094
a(F1631.4087868907206
I77
tp3095
a(F1646.8477425170804
I77
tp3096
a(F1640.1670700860827
I77
tp3097
a(F1647.4292991308505
I77
tp3098
a(F1644.492486053704
I77
tp3099
a(F1646.9063626069894
I77
tp3100
a(F2075.2115538797293
I78
tp3101
a(F2072.905437560508
I78
tp3102
a(F2078.1832292949757
I78
tp3103
a(F2073.414674738592
I78
tp3104
a(F2080.2189871556534
I78
tp3105
a(F2081.5963184200536
I78
tp3106
a(F2075.460313527903
I78
tp3107
a(F2082.8748076116362
I78
tp3108
a(F2078.274443715077
I78
tp3109
a(F2081.238997771804
I78
tp3110
a(F1772.3963805769522
I432
tp3111
a(F1781.07568214253
I432
tp3112
a(F1742.9604637708592
I432
tp3113
a(F1717.2190548360966
I432
tp3114
a(F1763.5134186411833
I432
tp3115
a(F1683.3196671317462
I432
tp3116
a(F1635.4154575782143
I432
tp3117
a(F1688.8907404083193
I432
tp3118
a(F1618.6691105095263
I432
tp3119
a(F1656.5964686286445
I432
tp3120
a(F1620.0026242440065
I432
tp3121
a(F1493.471444285949
I321
tp3122
a(F1490.8828994564121
I321
tp3123
a(F1499.1292647899174
I321
tp3124
a(F1501.2056788773343
I321
tp3125
a(F1504.0386594498023
I321
tp3126
a(F1374.9852309831963
I321
tp3127
a(F1399.5214699374699
I321
tp3128
a(F1510.485974192266
I321
tp3129
a(F1492.2553491046895
I321
tp3130
a(F1528.6272679622953
I321
tp3131
a(F1495.183839431646
I321
tp3132
a(F1498.8453094117344
I321
tp3133
a(F1501.6847406734737
I321
tp3134
a(F1505.3489988104282
I321
tp3135
a(F1372.9669554771967
I321
tp3136
a(F1418.0959578402596
I321
tp3137
a(F1362.517531269526
I321
tp3138
a(F1247.33137181219
I321
tp3139
a(F1556.9664651306728
I321
tp3140
a(F1523.9070328453447
I321
tp3141
a(F1412.1052587854626
I321
tp3142
a(F1448.5283967701698
I321
tp3143
a(F1445.919947059158
I321
tp3144
a(F1451.3636053985776
I321
tp3145
a(F1227.5849998604024
I321
tp3146
a(F1246.1971256156735
I321
tp3147
a(F1443.4283350057801
I321
tp3148
a(F1454.3139282292384
I321
tp3149
a(F1569.3042722780865
I321
tp3150
a(F1457.152291515049
I321
tp3151
a(F1459.3151607557425
I321
tp3152
a(F1361.911771037435
I321
tp3153
a(F1442.3187622760643
I321
tp3154
a(F1464.9997734005142
I321
tp3155
a(F1383.065813030287
I321
tp3156
a(F1467.9622007495827
I321
tp3157
a(F1442.8010825382541
I321
tp3158
a(F1473.6555297903096
I321
tp3159
a(F1447.1657953605586
I321
tp3160
a(F1483.7270953991365
I321
tp3161
a(F1486.706689427191
I321
tp3162
a(F1488.9052079066546
I321
tp3163
a(F1459.0598295908082
I321
tp3164
a(F1489.418097745411
I321
tp3165
a(F1470.4661783358222
I321
tp3166
a(F1473.4535854228861
I321
tp3167
a(F1474.7629535547596
I321
tp3168
a(F1488.3884988831237
I321
tp3169
a(F1476.9853441796768
I321
tp3170
a(F1479.8450951865057
I321
tp3171
a(F1483.4770148524574
I321
tp3172
a(F1280.556164482457
I257
tp3173
a(F1315.238286247818
I257
tp3174
a(F1316.452516862337
I257
tp3175
a(F1334.2601395416148
I257
tp3176
a(F1349.6400477119018
I257
tp3177
a(F1363.7283058460046
I74
tp3178
a(F1343.0565736457852
I77
tp3179
a(F1366.069788674654
I74
tp3180
a(F1346.4844923018059
I77
tp3181
a(F1356.0242342340011
I77
tp3182
a(F1370.5230158799611
I77
tp3183
a(F1351.350892311339
I77
tp3184
a(F1368.6321244689784
I77
tp3185
a(F1351.2484585217592
I77
tp3186
a(F1349.499084899451
I77
tp3187
a(F1353.6614138427346
I78
tp3188
a(F1344.6010636509973
I81
tp3189
a(F1367.9374599674068
I77
tp3190
a(F1359.4049134342013
I79
tp3191
a(F1361.4866589686183
I79
tp3192
a(F1350.2846447555487
I81
tp3193
a(F1375.8188399382773
I77
tp3194
a(F1379.8068991624743
I77
tp3195
a(F1375.6397399188668
I77
tp3196
a(F1394.1493555720836
I77
tp3197
a(F1383.4228552789596
I77
tp3198
a(F1409.8178350261428
I77
tp3199
a(F1392.9245919660736
I77
tp3200
a(F1417.2947964721739
I77
tp3201
a(F1425.1241389119384
I77
tp3202
a(F1403.2951747272955
I77
tp3203
a(F1412.4403957635723
I77
tp3204
a(F1425.4220059553504
I77
tp3205
a(F1436.5467554980187
I77
tp3206
a(F1444.5565613665487
I77
tp3207
a(F1432.4706264817692
I77
tp3208
a(F1449.8709908410672
I77
tp3209
a(F1453.9620819971306
I77
tp3210
a(F1457.272509708298
I77
tp3211
a(F1445.1643115318623
I77
tp3212
a(F1469.6605877430554
I77
tp3213
a(F1454.3323690670559
I77
tp3214
a(F1479.8760556580726
I77
tp3215
a(F1458.8864389685025
I77
tp3216
a(F1470.2762135713476
I77
tp3217
a(F1702.125387149535
I77
tp3218
a(F1479.377624458763
I77
tp3219
a(F1490.3437965691369
I77
tp3220
a(F1689.4921068733645
I77
tp3221
a(F1486.2374355524191
I77
tp3222
a(F1492.3595887972047
I77
tp3223
a(F1713.6862502775234
I77
tp3224
a(F1690.9022756219933
I77
tp3225
a(F1688.5192126307873
I77
tp3226
a(F1648.2942588836752
I77
tp3227
a(F1649.6715623745592
I77
tp3228
a(F1657.7516802190562
I77
tp3229
a(F1666.2336995412747
I77
tp3230
a(F1636.4045804613845
I77
tp3231
a(F1667.5095607156593
I77
tp3232
a(F1641.9409281516678
I77
tp3233
a(F1671.0879128384972
I77
tp3234
a(F1667.508880328111
I77
tp3235
a(F1660.086286710613
I77
tp3236
a(F2098.47484466108
I78
tp3237
a(F2105.614918445734
I78
tp3238
a(F1834.005373529154
I432
tp3239
a(F1791.1714771504944
I432
tp3240
a(F1835.9638254236154
I432
tp3241
a(F1747.9925823698802
I432
tp3242
a(F1811.9544712099143
I432
tp3243
a(F1729.367124506342
I432
tp3244
a(F1662.2920746633981
I432
tp3245
a(F1652.9432003583477
I432
tp3246
a(F1663.2482091446973
I432
tp3247
a(F1570.1907550554383
I321
tp3248
a(F1584.2141071672704
I321
tp3249
a(F1404.9886026077122
I321
tp3250
a(F1401.5003794325464
I321
tp3251
a(F1399.015431846115
I321
tp3252
a(F1416.178014502969
I321
tp3253
a(F1585.68411736762
I321
tp3254
a(F1398.4331251088024
I321
tp3255
a(F1421.9914002178675
I321
tp3256
a(F1569.113329612966
I321
tp3257
a(F1396.961916194415
I321
tp3258
a(F1424.7965964022976
I321
tp3259
a(F1396.393791935345
I321
tp3260
a(F1426.0174058901146
I321
tp3261
a(F1234.3625885451972
I440
tp3262
a(F1241.7999033660778
I440
tp3263
a(F1397.6229544972318
I321
tp3264
a(F1230.09389885488
I440
tp3265
a(F1250.2439761902474
I440
tp3266
a(F1406.369077886588
I321
tp3267
a(F1432.4152523390594
I321
tp3268
a(F1414.5556206220988
I321
tp3269
a(F1411.9807296445556
I321
tp3270
a(F1435.3446073677121
I321
tp3271
a(F1422.9859452262947
I321
tp3272
a(F1430.1769456985285
I321
tp3273
a(F1230.296305773532
I440
tp3274
a(F1252.0176091028318
I321
tp3275
a(F1249.6939459313915
I321
tp3276
a(F1233.7124948867022
I321
tp3277
a(F1249.2453663534523
I321
tp3278
a(F1236.5812576638752
I321
tp3279
a(F1246.9341804399987
I321
tp3280
a(F1532.8158125331208
I321
tp3281
a(F1536.4657051166394
I321
tp3282
a(F1242.0405808416936
I321
tp3283
a(F1542.1745882524363
I321
tp3284
a(F1544.3517728793436
I321
tp3285
a(F1527.2599883443459
I321
tp3286
a(F1547.4475671574696
I321
tp3287
a(F1504.1429738980685
I321
tp3288
a(F1524.7701259506534
I321
tp3289
a(F1485.9592706296414
I321
tp3290
a(F1548.7221422461716
I321
tp3291
a(F1524.2286455284757
I321
tp3292
a(F1487.1357491323956
I321
tp3293
a(F1509.8058353303486
I321
tp3294
a(F1518.6685574033497
I321
tp3295
a(F1524.3529288814882
I321
tp3296
a(F1550.9152818989087
I321
tp3297
a(F1524.7296532859755
I321
tp3298
a(F1526.0218925007503
I321
tp3299
a(F1495.0571489876545
I321
tp3300
a(F1506.4589920962196
I321
tp3301
a(F1528.2292871606576
I321
tp3302
a(F1551.9205247523378
I321
tp3303
a(F1531.351797870617
I321
tp3304
a(F1532.6599850010998
I321
tp3305
a(F1550.8769676746028
I321
tp3306
a(F1535.6579425085429
I321
tp3307
a(F1548.4076446005977
I321
tp3308
a(F1538.5230304469192
I321
tp3309
a(F1545.8079476156058
I321
tp3310
a(F1303.5758112662238
I257
tp3311
a(F1339.4192378841296
I257
tp3312
a(F1323.919089068965
I257
tp3313
a(F1367.7940345647414
I257
tp3314
a(F1352.780564962112
I257
tp3315
a(F1374.384707976894
I74
tp3316
a(F1347.1525902739768
I74
tp3317
a(F1380.2911514870857
I74
tp3318
a(F1354.313256188153
I77
tp3319
a(F1360.3840185487957
I77
tp3320
a(F1365.6178489074377
I77
tp3321
a(F1387.4163619303029
I74
tp3322
a(F1374.5293190724697
I77
tp3323
a(F1364.2683585624452
I78
tp3324
a(F1345.9296450397092
I79
tp3325
a(F1360.815601708883
I78
tp3326
a(F1344.4765140663808
I79
tp3327
a(F1371.2642133806385
I77
tp3328
a(F1410.0888083709608
I77
tp3329
a(F1438.157437298787
I77
tp3330
a(F1409.9801461975349
I77
tp3331
a(F1447.3288454031356
I77
tp3332
a(F1420.6741048992744
I77
tp3333
a(F1461.2586337751134
I77
tp3334
a(F1442.648840771114
I77
tp3335
a(F1487.0560524545879
I77
tp3336
a(F1470.0835811773463
I77
tp3337
a(F1501.7617673425927
I77
tp3338
a(F1514.0315661671018
I77
tp3339
a(F1648.6407146246397
I77
tp3340
a(F1525.66628137949
I77
tp3341
a(F1740.519133133412
I77
tp3342
a(F1716.0187802367968
I77
tp3343
a(F1642.9688665215422
I77
tp3344
a(F1701.8791946325455
I77
tp3345
a(F1489.0922991573439
I77
tp3346
a(F1525.8578031993384
I77
tp3347
a(F1737.8220882609403
I77
tp3348
a(F1691.7299049544663
I77
tp3349
a(F1670.7377464709534
I77
tp3350
a(F1728.0832046683454
I77
tp3351
a(F1715.650778871755
I77
tp3352
a(F1522.9143399210277
I77
tp3353
a(F1640.355161914026
I77
tp3354
a(F1694.4849648959562
I77
tp3355
a(F1730.9785744865944
I77
tp3356
a(F1504.474238871043
I78
tp3357
a(F1702.2563646498916
I77
tp3358
a(F1689.2073161981748
I77
tp3359
a(F1532.4998997674002
I77
tp3360
a(F1625.4747108341976
I77
tp3361
a(F1640.2508808846942
I77
tp3362
a(F1524.748009709725
I78
tp3363
a(F1637.57070135058
I77
tp3364
a(F1691.2010655555225
I77
tp3365
a(F1699.22258572876
I77
tp3366
a(F1699.563161689721
I77
tp3367
a(F2090.338330111495
I78
tp3368
a(F2088.460499915207
I78
tp3369
a(F1871.9744702909074
I432
tp3370
a(F1845.941708307839
I432
tp3371
a(F1791.8869730060833
I432
tp3372
a(F1866.9139857166479
I432
tp3373
a(F1836.6726955252625
I432
tp3374
a(F1727.591247272482
I432
tp3375
a(F1807.8472059712112
I432
tp3376
a(F1770.8336786439804
I432
tp3377
a(F1701.813050722984
I432
tp3378
a(F1753.4181814008423
I432
tp3379
a(F1704.186225598359
I432
tp3380
a(F1607.6048027989445
I321
tp3381
a(F1631.9540696347199
I321
tp3382
a(F1629.1218571023344
I321
tp3383
a(F1540.8609554304549
I321
tp3384
a(F1593.8283356780641
I321
tp3385
a(F1608.282358220579
I321
tp3386
a(F1544.2058054498514
I321
tp3387
a(F1538.0853768502445
I321
tp3388
a(F1552.645747706977
I321
tp3389
a(F1531.8342128593936
I321
tp3390
a(F1535.468203361619
I321
tp3391
a(F1523.9999956852225
I321
tp3392
a(F1567.777869777654
I321
tp3393
a(F1633.731100955282
I321
tp3394
a(F1637.4101068689413
I321
tp3395
a(F1521.5067702256727
I321
tp3396
a(F1570.6257503907664
I321
tp3397
a(F1574.2769119943791
I321
tp3398
a(F1628.429078694113
I321
tp3399
a(F1640.3824385924638
I321
tp3400
a(F1579.9782888668308
I321
tp3401
a(F1587.289667636805
I321
tp3402
a(F1592.7775459110912
I321
tp3403
a(F1520.0402105663384
I321
tp3404
a(F1590.1441091336842
I321
tp3405
a(F1595.6334508854338
I321
tp3406
a(F1599.2950501494583
I321
tp3407
a(F1602.1530689227413
I321
tp3408
a(F1609.4830076625717
I321
tp3409
a(F1618.654355189692
I321
tp3410
a(F1641.6250624379973
I321
tp3411
a(F1612.3440547167836
I321
tp3412
a(F1515.0782064720481
I321
tp3413
a(F1641.0331722675683
I321
tp3414
a(F1514.5345815083122
I321
tp3415
a(F1515.8064848015918
I321
tp3416
a(F1574.8541843283645
I321
tp3417
a(F1593.115953449892
I321
tp3418
a(F1638.0288923808878
I321
tp3419
a(F1601.7002958152184
I321
tp3420
a(F1605.3605157292734
I321
tp3421
a(F1564.400719161353
I321
tp3422
a(F1561.9156427626167
I321
tp3423
a(F1613.957800545156
I321
tp3424
a(F1617.6224311589397
I321
tp3425
a(F1626.7909206190445
I321
tp3426
a(F1630.4610535847087
I321
tp3427
a(F1559.3102488474058
I321
tp3428
a(F1620.4913232148324
I321
tp3429
a(F1624.1584517720426
I321
tp3430
a(F1522.3689147504813
I321
tp3431
a(F1525.2124151817536
I321
tp3432
a(F1554.359090477023
I321
tp3433
a(F1528.1870298463334
I321
tp3434
a(F1531.8087824655395
I321
tp3435
a(F1548.1297139951025
I321
tp3436
a(F1551.761630922275
I321
tp3437
a(F1534.6562953523367
I321
tp3438
a(F1545.5360197706677
I321
tp3439
a(F1312.6474183622888
I257
tp3440
a(F1323.4129823610456
I257
tp3441
a(F1351.200741062164
I257
tp3442
a(F1374.8700938191919
I257
tp3443
a(F1393.1118902031792
I74
tp3444
a(F1376.1263914858448
I77
tp3445
a(F1376.4212115012872
I77
tp3446
a(F1376.312972014136
I77
tp3447
a(F1377.8363010552935
I77
tp3448
a(F1375.587047355121
I78
tp3449
a(F1384.7056834871003
I77
tp3450
a(F1376.0729064355305
I78
tp3451
a(F1376.423739169118
I78
tp3452
a(F1401.4861115710266
I77
tp3453
a(F1391.822061199376
I77
tp3454
a(F1376.7297582799952
I78
tp3455
a(F1376.592478706251
I79
tp3456
a(F1405.2148867344556
I77
tp3457
a(F1424.5027378191164
I77
tp3458
a(F1397.475932587125
I77
tp3459
a(F1406.2029994884365
I77
tp3460
a(F1424.356646522383
I77
tp3461
a(F1446.641031968436
I77
tp3462
a(F1442.6910985716684
I77
tp3463
a(F1486.5013158275249
I77
tp3464
a(F1497.7830255637464
I77
tp3465
a(F1457.1344371627456
I77
tp3466
a(F1469.0997572418678
I77
tp3467
a(F1500.2857203976546
I78
tp3468
a(F1655.5883117159256
I77
tp3469
a(F1552.8647362080287
I77
tp3470
a(F1655.5748899608766
I77
tp3471
a(F1767.5662058180965
I77
tp3472
a(F1741.6535655217776
I77
tp3473
a(F1729.3809027643913
I77
tp3474
a(F1676.6766602387559
I77
tp3475
a(F1565.6204143559805
I77
tp3476
a(F1693.0866214930752
I77
tp3477
a(F1706.3979677443444
I77
tp3478
a(F1667.335034928862
I77
tp3479
a(F1765.1674190791684
I77
tp3480
a(F1656.8020259475031
I77
tp3481
a(F1668.3325484709312
I77
tp3482
a(F1516.4256927738802
I78
tp3483
a(F1565.2407643361128
I77
tp3484
a(F1637.7379355314588
I77
tp3485
a(F1771.5188783121232
I77
tp3486
a(F1758.0406849713236
I77
tp3487
a(F1642.1921443059148
I77
tp3488
a(F1572.1922935011219
I78
tp3489
a(F1750.4954960825492
I77
tp3490
a(F1730.6477685083898
I77
tp3491
a(F1648.577509123579
I77
tp3492
a(F1663.4974030916153
I77
tp3493
a(F1761.1121273283272
I77
tp3494
a(F1670.6174064797056
I77
tp3495
a(F1757.7643449526768
I77
tp3496
a(F1704.094849893874
I77
tp3497
a(F2109.879184185341
I78
tp3498
a(F1569.2112154866245
I77
tp3499
a(F1902.6103118713993
I432
tp3500
a(F1873.713254597437
I432
tp3501
a(F1912.9106169991512
I432
tp3502
a(F1900.3428743121642
I432
tp3503
a(F1815.13497586992
I432
tp3504
a(F1867.0284672387013
I432
tp3505
a(F1756.0548751911813
I432
tp3506
a(F1830.9147073946885
I432
tp3507
a(F1784.6303960474713
I432
tp3508
a(F1746.540556381281
I432
tp3509
a(F1582.9614856216265
I321
tp3510
a(F1620.8931887511037
I321
tp3511
a(F1667.6965311340102
I321
tp3512
a(F1664.4450474188257
I321
tp3513
a(F1635.4715404672645
I321
tp3514
a(F1587.8514611819774
I321
tp3515
a(F1566.193136956797
I321
tp3516
a(F1324.8801331579448
I257
tp3517
a(F1327.9597425135346
I257
tp3518
a(F1341.7300845137968
I257
tp3519
a(F1355.761662432842
I257
tp3520
a(F1366.2297462933548
I257
tp3521
a(F1378.8101277792434
I257
tp3522
a(F1354.7002693815575
I257
tp3523
a(F1374.1694318344623
I257
tp3524
a(F1385.35264411146
I257
tp3525
a(F1387.2072841845359
I257
tp3526
a(F1379.2707486924432
I257
tp3527
a(F1388.2195800820916
I257
tp3528
a(F1396.8279364974815
I257
tp3529
a(F1405.7466026862094
I74
tp3530
a(F1399.5818158125082
I74
tp3531
a(F1407.6688294592213
I74
tp3532
a(F1410.1721952467933
I77
tp3533
a(F1412.8173849386721
I77
tp3534
a(F1418.0145158425655
I77
tp3535
a(F1403.26899654282
I77
tp3536
a(F1409.4815192869044
I77
tp3537
a(F1419.4304757236278
I77
tp3538
a(F1427.515055466732
I77
tp3539
a(F1435.0222396459094
I77
tp3540
a(F1441.3906182555968
I77
tp3541
a(F1426.933397226895
I77
tp3542
a(F1463.3217672383846
I77
tp3543
a(F1464.9383296235762
I77
tp3544
a(F1447.3964427312033
I77
tp3545
a(F1467.1361954977897
I77
tp3546
a(F1428.8559456716516
I77
tp3547
a(F1474.2271596070616
I77
tp3548
a(F1511.4841764420498
I77
tp3549
a(F1508.8455090036045
I77
tp3550
a(F1509.9604804163503
I77
tp3551
a(F1532.6623033141768
I77
tp3552
a(F1512.783146038
I77
tp3553
a(F1525.1710429579523
I77
tp3554
a(F1518.255811518634
I77
tp3555
a(F1494.7066941808328
I77
tp3556
a(F1545.3497118024027
I77
tp3557
a(F1534.3864012692686
I77
tp3558
a(F1498.501461999055
I77
tp3559
a(F1546.9667870317446
I77
tp3560
a(F1546.1635647989558
I77
tp3561
a(F1770.0978423276174
I77
tp3562
a(F1557.75877194161
I77
tp3563
a(F1572.049325505409
I77
tp3564
a(F1571.0151289129556
I77
tp3565
a(F1576.3090161626292
I77
tp3566
a(F1574.3493112828853
I77
tp3567
a(F1590.4076062211009
I77
tp3568
a(F1563.94934534694
I77
tp3569
a(F1705.6305872614016
I77
tp3570
a(F1736.939176798644
I77
tp3571
a(F1582.128389143919
I77
tp3572
a(F1593.3723238551636
I77
tp3573
a(F1607.1913482500095
I77
tp3574
a(F1793.000499717331
I77
tp3575
a(F1588.6563589599532
I77
tp3576
a(F1613.772060242211
I77
tp3577
a(F1590.6845413940384
I77
tp3578
a(F1578.0389993740757
I77
tp3579
a(F1585.9378979964588
I77
tp3580
a(F1714.3706269112138
I77
tp3581
a(F1703.1060691936448
I77
tp3582
a(F1677.0630542029112
I77
tp3583
a(F1625.7337901575029
I77
tp3584
a(F1569.792812752582
I77
tp3585
a(F1711.5878646069293
I77
tp3586
a(F1606.6129831711544
I77
tp3587
a(F1533.199581262792
I78
tp3588
a(F1657.2883485839252
I77
tp3589
a(F1595.3575233752138
I77
tp3590
a(F1630.4997926576941
I77
tp3591
a(F1763.486778865612
I77
tp3592
a(F1794.0168613107332
I77
tp3593
a(F1748.9093919346647
I77
tp3594
a(F1556.4015968948856
I78
tp3595
a(F1658.9778106696178
I77
tp3596
a(F1681.1298671510067
I77
tp3597
a(F1687.633883642878
I77
tp3598
a(F1722.2072846558922
I77
tp3599
a(F1761.9069855982607
I77
tp3600
a(F1733.3551906004045
I77
tp3601
a(F1914.0509684140259
I77
tp3602
a(F1909.4491953960624
I77
tp3603
a(F1916.8474638929836
I77
tp3604
a(F1904.1011289274186
I77
tp3605
a(F1901.8274551700713
I77
tp3606
a(F1921.9667894037773
I77
tp3607
a(F1901.3455505307456
I77
tp3608
a(F1899.5788516359491
I77
tp3609
a(F1920.381633393494
I77
tp3610
a(F1901.392783062769
I77
tp3611
a(F1904.9079693482706
I77
tp3612
a(F1916.784917985543
I77
tp3613
a(F1914.4984361823972
I77
tp3614
a(F1912.7560686117465
I77
tp3615
a(F1910.4815147860143
I77
tp3616
a(F2114.744278264691
I78
tp3617
a(F2131.849688012146
I78
tp3618
a(F1930.0495481234968
I432
tp3619
a(F1899.52668972179
I432
tp3620
a(F1937.3085536937986
I432
tp3621
a(F1854.8034505302471
I432
tp3622
a(F1913.0317168515267
I432
tp3623
a(F1880.6553089160698
I432
tp3624
a(F1877.0222545846584
I432
tp3625
a(F1790.685838453226
I432
tp3626
a(F1847.2160765917301
I432
tp3627
a(F1758.550806996738
I432
tp3628
a(F1751.1454164889335
I432
tp3629
a(F1631.1959059692845
I440
tp3630
a(F1668.0368777440722
I440
tp3631
a(F1590.7038973676324
I440
tp3632
a(F1630.5303720866013
I321
tp3633
a(F1599.2654013040212
I321
tp3634
a(F1573.386465721761
I321
tp3635
a(F1589.569825730645
I321
tp3636
a(F1455.865675289326
I77
tp3637
a(F1455.6104953828567
I77
tp3638
a(F1468.7765529120918
I77
tp3639
a(F1501.045503853013
I77
tp3640
a(F1499.6540786084254
I77
tp3641
a(F1465.130758297913
I77
tp3642
a(F1524.9140190110818
I77
tp3643
a(F1563.3822591135634
I77
tp3644
a(F1489.3689324738896
I77
tp3645
a(F1571.8179601379948
I77
tp3646
a(F1528.791469239578
I78
tp3647
a(F1806.8507767794083
I77
tp3648
a(F1580.8235802708766
I77
tp3649
a(F1799.93443781072
I77
tp3650
a(F1585.8446511289399
I77
tp3651
a(F1795.9772483308311
I77
tp3652
a(F1604.273896769622
I77
tp3653
a(F1611.0332600213208
I77
tp3654
a(F1775.4503974327476
I77
tp3655
a(F1630.7329012349614
I77
tp3656
a(F1747.6117732182674
I77
tp3657
a(F1526.6566753043187
I78
tp3658
a(F1644.195449761352
I77
tp3659
a(F1620.6680773625192
I77
tp3660
a(F1679.7396942953876
I77
tp3661
a(F1662.778844612479
I77
tp3662
a(F1691.9163794729955
I77
tp3663
a(F1612.3635956041817
I77
tp3664
a(F1682.373060045608
I77
tp3665
a(F1667.533155095231
I77
tp3666
a(F1798.4140427633786
I77
tp3667
a(F1707.4988458392274
I77
tp3668
a(F1732.411007048519
I77
tp3669
a(F1764.4244194028047
I77
tp3670
a(F1766.7930516961612
I77
tp3671
a(F1574.1537745942908
I78
tp3672
a(F1587.0877826578258
I78
tp3673
a(F1667.1785915303826
I77
tp3674
a(F1769.10899131238
I77
tp3675
a(F1791.3344551695657
I77
tp3676
a(F1796.1717344100314
I77
tp3677
a(F1710.8070574787341
I77
tp3678
a(F1794.5307124083595
I77
tp3679
a(F1734.5259628128922
I77
tp3680
a(F1681.1941101993757
I77
tp3681
a(F1801.6491370690192
I77
tp3682
a(F1704.7259574878062
I77
tp3683
a(F1698.8698885867234
I77
tp3684
a(F1754.9998282346482
I77
tp3685
a(F1776.586625308295
I77
tp3686
a(F1833.5214323561677
I77
tp3687
a(F1937.3331527187265
I77
tp3688
a(F1950.306623362583
I77
tp3689
a(F1934.3959743221117
I77
tp3690
a(F1946.4002979349973
I77
tp3691
a(F1850.9242353684854
I77
tp3692
a(F1847.9198593008807
I77
tp3693
a(F1855.4793670735455
I77
tp3694
a(F1853.3647460302154
I77
tp3695
a(F1862.3560750622134
I77
tp3696
a(F1858.0970240289212
I77
tp3697
a(F1864.9907237424602
I77
tp3698
a(F1848.7542546046259
I77
tp3699
a(F1926.0885831061642
I77
tp3700
a(F1941.322337289253
I77
tp3701
a(F1868.059313528729
I77
tp3702
a(F1851.8497490711025
I77
tp3703
a(F1868.8946793585205
I77
tp3704
a(F1854.8039248970297
I77
tp3705
a(F1857.4459015851971
I77
tp3706
a(F1868.5199884360704
I77
tp3707
a(F1862.6694819117604
I77
tp3708
a(F1860.5630328041632
I77
tp3709
a(F1865.329052892182
I77
tp3710
a(F1888.358196720788
I77
tp3711
a(F1903.4335077556607
I77
tp3712
a(F1926.3357033080783
I77
tp3713
a(F1934.5443844888864
I77
tp3714
a(F1904.709216746976
I77
tp3715
a(F2111.9213231362683
I77
tp3716
a(F2109.980109413673
I77
tp3717
a(F2129.1956521427587
I77
tp3718
a(F2155.3995872140267
I77
tp3719
a(F2135.504951868828
I78
tp3720
a(F2160.877037493832
I78
tp3721
a(F2182.1269747039405
I78
tp3722
a(F2137.0907294091276
I78
tp3723
a(F1768.137525073658
I77
tp3724
a(F1732.7722585982624
I77
tp3725
a(F1963.4737476126402
I432
tp3726
a(F1929.5952064752726
I432
tp3727
a(F1966.567760582218
I432
tp3728
a(F1903.7249583840032
I432
tp3729
a(F1879.0507712880105
I432
tp3730
a(F1950.0923245236706
I432
tp3731
a(F1927.2217368880279
I432
tp3732
a(F1847.402346341785
I432
tp3733
a(F1904.8265453109755
I432
tp3734
a(F1814.215497853392
I432
tp3735
a(F1855.0330338100111
I432
tp3736
a(F1808.3546570257242
I432
tp3737
a(F1820.6473091046535
I432
tp3738
a(F1689.3545202607288
I440
tp3739
a(F1688.4999956396366
I321
tp3740
a(F1648.328733034889
I440
tp3741
a(F1645.7398373219269
I440
tp3742
a(F1710.5849868397077
I440
tp3743
a(F1658.6856327579596
I440
tp3744
a(F1682.48330954
I321
tp3745
a(F1492.0696903663522
I77
tp3746
a(F1482.0481319674548
I77
tp3747
a(F1530.528774253808
I77
tp3748
a(F1493.6620089618016
I77
tp3749
a(F1498.8086283577152
I77
tp3750
a(F1533.8190697163466
I77
tp3751
a(F1497.2582534672047
I77
tp3752
a(F1555.377706654096
I77
tp3753
a(F1546.3248201588638
I77
tp3754
a(F1483.3428485001643
I77
tp3755
a(F1582.4333784336873
I77
tp3756
a(F1576.0233119608338
I77
tp3757
a(F1813.6610614547394
I77
tp3758
a(F1597.3128959441517
I77
tp3759
a(F1613.0218975755868
I77
tp3760
a(F1823.244729437099
I77
tp3761
a(F1776.3735157028289
I77
tp3762
a(F1755.4436949641206
I77
tp3763
a(F1625.917580963104
I77
tp3764
a(F1752.196369448075
I77
tp3765
a(F1809.6740696341444
I77
tp3766
a(F1641.1407039097828
I77
tp3767
a(F1648.8636681726457
I77
tp3768
a(F1676.0525810173874
I77
tp3769
a(F1799.0244633882312
I77
tp3770
a(F1764.2637988160511
I77
tp3771
a(F1633.8663091098283
I77
tp3772
a(F1642.4608854989751
I77
tp3773
a(F1638.061411854854
I77
tp3774
a(F1629.294670082481
I77
tp3775
a(F1615.3378035331716
I78
tp3776
a(F1569.6740355869626
I78
tp3777
a(F1765.9384600302837
I77
tp3778
a(F1754.2757250617267
I77
tp3779
a(F1700.3827155761699
I77
tp3780
a(F1608.7999274500162
I78
tp3781
a(F1709.4568379154139
I77
tp3782
a(F1793.0221971741396
I77
tp3783
a(F1585.3227451134844
I78
tp3784
a(F1750.771675044809
I77
tp3785
a(F1821.758796547126
I77
tp3786
a(F1810.9330972260293
I77
tp3787
a(F1752.1386854879333
I77
tp3788
a(F1752.6528929731535
I77
tp3789
a(F1719.810665304551
I77
tp3790
a(F1753.4265801587997
I77
tp3791
a(F1799.5910047252844
I77
tp3792
a(F1715.7605897424453
I77
tp3793
a(F1808.6950953004045
I77
tp3794
a(F1833.0085610910285
I77
tp3795
a(F1854.1489320032522
I77
tp3796
a(F1770.6923976351502
I77
tp3797
a(F1867.053189402226
I77
tp3798
a(F1718.190520984245
I77
tp3799
a(F1719.1441020491745
I77
tp3800
a(F1876.687083768892
I77
tp3801
a(F1792.2139696698757
I77
tp3802
a(F1867.0522854809935
I77
tp3803
a(F1830.1528600350896
I77
tp3804
a(F1844.522834503181
I77
tp3805
a(F1906.5742096400681
I77
tp3806
a(F1803.0740197300393
I77
tp3807
a(F1921.1239734944945
I77
tp3808
a(F1902.3536253126028
I77
tp3809
a(F1907.2013075281252
I77
tp3810
a(F1833.372811019286
I77
tp3811
a(F1940.8575093423688
I77
tp3812
a(F1959.3326796855054
I77
tp3813
a(F1964.7275849386863
I77
tp3814
a(F1926.9757383019655
I77
tp3815
a(F1873.781313398283
I77
tp3816
a(F1854.280702722326
I77
tp3817
a(F1852.5454387210648
I77
tp3818
a(F1949.6081070539685
I77
tp3819
a(F1850.1220799755438
I77
tp3820
a(F1894.9839374888982
I77
tp3821
a(F1846.4411505420567
I77
tp3822
a(F1881.1399979321918
I77
tp3823
a(F1930.9416537062316
I77
tp3824
a(F1862.6438323469654
I77
tp3825
a(F1912.8098896602773
I77
tp3826
a(F1938.2060328334248
I77
tp3827
a(F1890.7478926027413
I77
tp3828
a(F1881.8292294615892
I77
tp3829
a(F1919.4815157462615
I77
tp3830
a(F1930.320633817236
I77
tp3831
a(F2107.838524315509
I77
tp3832
a(F2119.8343651010314
I77
tp3833
a(F2127.0017651358057
I78
tp3834
a(F2154.9799005685045
I77
tp3835
a(F2195.50693522511
I77
tp3836
a(F2178.0571250877697
I78
tp3837
a(F1658.617583634517
I77
tp3838
a(F1852.0801268365828
I77
tp3839
a(F2003.5876450629873
I432
tp3840
a(F1999.6198914435347
I432
tp3841
a(F1994.9680773325524
I432
tp3842
a(F1973.2291916934075
I432
tp3843
a(F1923.567598032106
I432
tp3844
a(F1974.4373226977061
I432
tp3845
a(F1942.4607919981747
I432
tp3846
a(F1855.8297728201658
I432
tp3847
a(F1896.0578316059086
I432
tp3848
a(F1848.353423748931
I432
tp3849
a(F1851.5800335601393
I432
tp3850
a(F1712.9584470899495
I440
tp3851
a(F1697.2125773500818
I440
tp3852
a(F1685.554211528066
I440
tp3853
a(F1714.7034729071963
I440
tp3854
a(F1694.1417856492453
I440
tp3855
a(F1686.2750059814732
I440
tp3856
a(F1545.0059535296925
I77
tp3857
a(F1512.5879770601316
I77
tp3858
a(F1514.6951602457505
I77
tp3859
a(F1507.8216437269468
I77
tp3860
a(F1527.9020492103075
I77
tp3861
a(F1550.161008365089
I77
tp3862
a(F1525.7453351497124
I77
tp3863
a(F1521.3078417021602
I77
tp3864
a(F1523.0306224278972
I77
tp3865
a(F1518.5155563038857
I77
tp3866
a(F1572.3920254115035
I77
tp3867
a(F1549.6389359898394
I77
tp3868
a(F1601.6272612178202
I77
tp3869
a(F1813.9261096630999
I77
tp3870
a(F1781.556468150525
I77
tp3871
a(F1768.3306361374018
I77
tp3872
a(F1623.0599902236727
I77
tp3873
a(F1789.2853341155824
I77
tp3874
a(F1793.81468408876
I77
tp3875
a(F1796.2938740361192
I77
tp3876
a(F1765.7245547607547
I77
tp3877
a(F1756.1769833597723
I77
tp3878
a(F1631.0424013418026
I77
tp3879
a(F1766.089206135377
I77
tp3880
a(F1803.851893225051
I77
tp3881
a(F1642.5682525472516
I77
tp3882
a(F1624.2381471461858
I77
tp3883
a(F1814.166748888583
I77
tp3884
a(F1792.7163246205846
I77
tp3885
a(F1803.2141254014257
I77
tp3886
a(F1564.2368055061959
I78
tp3887
a(F1681.9178883091265
I77
tp3888
a(F1705.3570061961007
I77
tp3889
a(F1803.1531719037798
I77
tp3890
a(F1809.8831894535513
I77
tp3891
a(F1814.0485900360381
I77
tp3892
a(F1632.6179310467726
I78
tp3893
a(F1823.5371146744146
I77
tp3894
a(F1842.8247353334484
I77
tp3895
a(F1716.4919882845506
I77
tp3896
a(F1609.9488051960525
I78
tp3897
a(F1790.7531456939796
I77
tp3898
a(F1788.7321609930068
I77
tp3899
a(F1843.412835588833
I77
tp3900
a(F1795.4419889155356
I77
tp3901
a(F1797.0499930441447
I77
tp3902
a(F1863.541716995653
I77
tp3903
a(F1856.4884772940036
I77
tp3904
a(F1855.2509616407062
I77
tp3905
a(F1852.8787390764091
I77
tp3906
a(F1857.8590224116178
I77
tp3907
a(F1855.1085459341848
I77
tp3908
a(F1855.9217612472494
I77
tp3909
a(F1810.81021919187
I77
tp3910
a(F1867.65844231769
I77
tp3911
a(F1862.4684750248484
I77
tp3912
a(F1865.0963147415237
I77
tp3913
a(F1861.7108710099872
I77
tp3914
a(F1862.8573702565345
I77
tp3915
a(F1728.9162614296579
I77
tp3916
a(F1867.5911541737826
I77
tp3917
a(F1837.9605649980085
I77
tp3918
a(F1881.1603577482822
I77
tp3919
a(F1747.1164929845877
I77
tp3920
a(F1814.7846301937398
I77
tp3921
a(F1741.5351267467056
I77
tp3922
a(F1891.3014955328447
I77
tp3923
a(F1629.0115458579226
I78
tp3924
a(F1630.6787611720674
I78
tp3925
a(F1912.1496871657816
I77
tp3926
a(F1632.5896668384125
I78
tp3927
a(F1860.2031591398863
I77
tp3928
a(F1634.3224953755052
I78
tp3929
a(F1629.4238785730254
I78
tp3930
a(F1636.2487026794884
I78
tp3931
a(F1630.951279608303
I78
tp3932
a(F1874.915257616339
I77
tp3933
a(F1638.0327168181475
I78
tp3934
a(F1632.1264403876032
I78
tp3935
a(F1639.9743224576814
I78
tp3936
a(F1641.7716414074364
I78
tp3937
a(F1643.7285415504468
I78
tp3938
a(F1645.5002045586073
I78
tp3939
a(F1877.2051874050433
I77
tp3940
a(F1839.5305795618985
I77
tp3941
a(F1647.4720996060323
I78
tp3942
a(F1886.8649166025066
I77
tp3943
a(F1649.8062082470226
I78
tp3944
a(F1651.382579889475
I78
tp3945
a(F1902.4037380059156
I77
tp3946
a(F1653.2485116534003
I78
tp3947
a(F1643.1116882781612
I78
tp3948
a(F1655.222759782695
I78
tp3949
a(F1656.8198105112822
I78
tp3950
a(F1950.3073363348678
I77
tp3951
a(F1658.8397385885507
I78
tp3952
a(F1897.3506909644202
I77
tp3953
a(F1646.849938923492
I78
tp3954
a(F1927.367910651467
I77
tp3955
a(F1663.7024308212485
I78
tp3956
a(F1651.7573739833308
I78
tp3957
a(F1867.7055586435872
I77
tp3958
a(F1653.5783551627183
I78
tp3959
a(F1664.6401347800465
I78
tp3960
a(F1663.4812227135392
I78
tp3961
a(F1655.6167365427698
I78
tp3962
a(F1663.8216475930378
I78
tp3963
a(F1920.3421912203255
I77
tp3964
a(F1659.2768857282263
I78
tp3965
a(F1662.0840452369464
I78
tp3966
a(F1660.968384117895
I78
tp3967
a(F1885.9098280771057
I77
tp3968
a(F1912.5709916334172
I77
tp3969
a(F1934.5540443092482
I77
tp3970
a(F1960.7210111293828
I77
tp3971
a(F1939.325300627028
I77
tp3972
a(F1969.2192817126195
I77
tp3973
a(F1964.8500558076282
I77
tp3974
a(F2109.8764790230794
I77
tp3975
a(F2122.785308472938
I77
tp3976
a(F2151.4588795855047
I78
tp3977
a(F2211.931508726722
I78
tp3978
a(F2211.206456159799
I78
tp3979
a(F1538.3373919320975
I77
tp3980
a(F2034.4394470797276
I432
tp3981
a(F2031.4383496499456
I432
tp3982
a(F2030.3059944912522
I432
tp3983
a(F1993.813771918229
I432
tp3984
a(F1940.1676028049508
I432
tp3985
a(F1900.8162714320163
I432
tp3986
a(F1959.6366649603465
I432
tp3987
a(F1925.85269034174
I432
tp3988
a(F1893.888441043802
I432
tp3989
a(F1899.6462624872954
I432
tp3990
a(F1905.5586041613115
I440
tp3991
a(F1909.4631690329104
I440
tp3992
a(F1899.9856825495306
I440
tp3993
a(F1912.6731539636367
I440
tp3994
a(F1894.4174814156474
I440
tp3995
a(F1891.6351640560092
I440
tp3996
a(F1916.026772749589
I440
tp3997
a(F1888.9993631267337
I440
tp3998
a(F1886.2201870124297
I440
tp3999
a(F1918.8419929460595
I440
tp4000
a(F1880.962145789544
I440
tp4001
a(F1858.7066992651653
I440
tp4002
a(F1855.9371201345173
I440
tp4003
a(F1861.7794160139395
I440
tp4004
a(F1865.674836056167
I440
tp4005
a(F1871.5187933582727
I440
tp4006
a(F1875.4153123756896
I440
tp4007
a(F1918.30513576261
I440
tp4008
a(F1868.7478679300762
I440
tp4009
a(F1853.3217728967643
I440
tp4010
a(F1916.7982663528276
I440
tp4011
a(F1845.0267190187803
I440
tp4012
a(F1842.420851459624
I440
tp4013
a(F1839.6604561421668
I440
tp4014
a(F1910.3629482098959
I440
tp4015
a(F1907.5949763755423
I440
tp4016
a(F1831.8694259944416
I440
tp4017
a(F1829.1166157173263
I440
tp4018
a(F1906.1137410693007
I440
tp4019
a(F1826.5285636674848
I440
tp4020
a(F1823.779206453787
I440
tp4021
a(F1903.6647798110898
I440
tp4022
a(F1818.6177701466588
I440
tp4023
a(F1815.8740578281318
I440
tp4024
a(F1813.3007455723402
I440
tp4025
a(F1810.5605744887978
I440
tp4026
a(F1884.3613225422573
I440
tp4027
a(F1881.773257832411
I440
tp4028
a(F1805.428922415171
I440
tp4029
a(F1802.6945370453657
I440
tp4030
a(F1873.525712098237
I440
tp4031
a(F1870.947245085549
I440
tp4032
a(F1868.2027710859454
I440
tp4033
a(F1797.5815958929945
I440
tp4034
a(F1867.7418434819106
I440
tp4035
a(F1796.1766599901039
I440
tp4036
a(F1793.4510291316028
I440
tp4037
a(F1725.5664559480765
I440
tp4038
a(F1788.3664596198412
I440
tp4039
a(F1864.8955986577923
I440
tp4040
a(F1723.05037474045
I440
tp4041
a(F1852.6398986023175
I440
tp4042
a(F1856.5178679164942
I440
tp4043
a(F1862.3357897793849
I440
tp4044
a(F1786.980020563522
I440
tp4045
a(F1859.6028054112
I440
tp4046
a(F1717.6456543458564
I440
tp4047
a(F1731.1471901294833
I440
tp4048
a(F1847.1790909094887
I440
tp4049
a(F1784.4479801589077
I440
tp4050
a(F1844.6299341312895
I440
tp4051
a(F1841.9037960472326
I440
tp4052
a(F1712.6349855976916
I440
tp4053
a(F1731.9118320206735
I440
tp4054
a(F1839.3603762974794
I440
tp4055
a(F1712.2577475056742
I440
tp4056
a(F1827.3266248520556
I440
tp4057
a(F1831.1970385223992
I440
tp4058
a(F1777.2533848309884
I440
tp4059
a(F1816.8716503631194
I440
tp4060
a(F1824.6091619558433
I440
tp4061
a(F1710.9236084329439
I440
tp4062
a(F1814.344397817902
I440
tp4063
a(F1775.8959974878048
I440
tp4064
a(F1811.6323009631963
I440
tp4065
a(F1773.3864761786149
I440
tp4066
a(F1730.4076380706383
I440
tp4067
a(F1806.5933670566837
I440
tp4068
a(F1771.075829515271
I440
tp4069
a(F1803.8873562096956
I440
tp4070
a(F1709.844903461482
I440
tp4071
a(F1801.3757503345062
I440
tp4072
a(F1795.972882282248
I440
tp4073
a(F1727.7657809706745
I440
tp4074
a(F1710.6634952243546
I440
tp4075
a(F1770.3303629247298
I440
tp4076
a(F1793.4697081058284
I440
tp4077
a(F1790.772904053779
I440
tp4078
a(F1727.4161611763407
I440
tp4079
a(F1712.2440228814364
I440
tp4080
a(F1771.1300330278423
I440
tp4081
a(F1726.111118640166
I440
tp4082
a(F1785.7826278394593
I440
tp4083
a(F1714.7893730406674
I440
tp4084
a(F1783.092143971591
I440
tp4085
a(F1770.7725980185048
I440
tp4086
a(F1776.752822959121
I440
tp4087
a(F1780.6051201468576
I440
tp4088
a(F1716.378336466994
I440
tp4089
a(F1774.0672461587258
I440
tp4090
a(F1719.6800847521627
I440
tp4091
a(F1725.4412751215862
I440
tp4092
a(F1722.7714862665928
I440
tp4093
a(F1555.3149489256293
I77
tp4094
a(F1531.8244799876045
I77
tp4095
a(F1552.9952723610936
I77
tp4096
a(F1533.995528922463
I77
tp4097
a(F1535.7967369884752
I77
tp4098
a(F1556.2181747005936
I77
tp4099
a(F1549.774367128227
I77
tp4100
a(F1528.5305717495528
I77
tp4101
a(F1560.728027557971
I77
tp4102
a(F1529.4028869675194
I77
tp4103
a(F1533.7228856694328
I77
tp4104
a(F1549.0113638926114
I77
tp4105
a(F1548.6400501809476
I77
tp4106
a(F1529.597718731956
I77
tp4107
a(F1547.423904376474
I77
tp4108
a(F1547.0711061857344
I77
tp4109
a(F1580.6553916645382
I77
tp4110
a(F1543.3263671574691
I77
tp4111
a(F1602.0824300566894
I77
tp4112
a(F1621.9809829691278
I77
tp4113
a(F1830.784279728227
I77
tp4114
a(F1833.3655008879769
I77
tp4115
a(F1828.8231680395518
I77
tp4116
a(F1827.8923453956156
I77
tp4117
a(F1835.0102576253094
I77
tp4118
a(F1784.814509276492
I77
tp4119
a(F1828.1751729313917
I77
tp4120
a(F1788.5854931701542
I77
tp4121
a(F1790.6423234352505
I77
tp4122
a(F1826.405826672184
I77
tp4123
a(F1792.2888283991592
I77
tp4124
a(F1793.229612632033
I77
tp4125
a(F1782.5763502808038
I77
tp4126
a(F1794.8925581877347
I77
tp4127
a(F1783.5312287135403
I77
tp4128
a(F1835.9431143665927
I77
tp4129
a(F1795.1364410685976
I77
tp4130
a(F1783.7925689332803
I77
tp4131
a(F1834.1837892964027
I77
tp4132
a(F1796.8154312198317
I77
tp4133
a(F1784.7647262867988
I77
tp4134
a(F1803.5943103336745
I77
tp4135
a(F1799.2791768872344
I77
tp4136
a(F1827.365041553806
I77
tp4137
a(F1806.1005537229155
I77
tp4138
a(F1834.390590147156
I77
tp4139
a(F1833.5417334520157
I77
tp4140
a(F1833.7661225895038
I77
tp4141
a(F1812.4060493427576
I77
tp4142
a(F1814.9091908758714
I77
tp4143
a(F1785.629459371006
I77
tp4144
a(F1834.7438489284937
I77
tp4145
a(F1784.9091281062304
I77
tp4146
a(F1823.2192626816973
I77
tp4147
a(F1821.3402604334767
I77
tp4148
a(F1819.144904784631
I77
tp4149
a(F1834.986493987927
I77
tp4150
a(F1785.2270893816574
I77
tp4151
a(F1834.142431490729
I77
tp4152
a(F1784.4971458118737
I77
tp4153
a(F1834.4024481699441
I77
tp4154
a(F1805.570951499476
I77
tp4155
a(F1803.43329820948
I77
tp4156
a(F1785.1734801402363
I77
tp4157
a(F1810.2253420425156
I77
tp4158
a(F1808.0754932150767
I77
tp4159
a(F1801.663839272172
I77
tp4160
a(F1787.266974050724
I77
tp4161
a(F1644.1487653347808
I77
tp4162
a(F1812.3348985979067
I77
tp4163
a(F1800.920329557086
I77
tp4164
a(F1814.8567083993446
I77
tp4165
a(F1789.0100523087372
I77
tp4166
a(F1637.6808814454375
I77
tp4167
a(F1816.971026909346
I77
tp4168
a(F1801.2610195889777
I77
tp4169
a(F1800.5591815315904
I77
tp4170
a(F1791.4598613344456
I77
tp4171
a(F1818.016312422967
I77
tp4172
a(F1798.7924707258485
I77
tp4173
a(F1793.5720541082546
I77
tp4174
a(F1798.1108083890692
I77
tp4175
a(F1796.0117815798403
I77
tp4176
a(F1819.7947419541263
I77
tp4177
a(F1827.3754352808523
I77
tp4178
a(F1825.1961050243024
I77
tp4179
a(F1820.8559807002541
I77
tp4180
a(F1823.395839268617
I77
tp4181
a(F1693.7728257759504
I77
tp4182
a(F1711.4369929076977
I77
tp4183
a(F1608.1911690819932
I78
tp4184
a(F1715.4372786290896
I77
tp4185
a(F1730.582549910828
I77
tp4186
a(F1878.089194028868
I77
tp4187
a(F1872.3115167449066
I77
tp4188
a(F1643.8157028322285
I78
tp4189
a(F1623.1984275979862
I78
tp4190
a(F1891.2491334018864
I77
tp4191
a(F1638.5757437255554
I78
tp4192
a(F1636.5314896309687
I78
tp4193
a(F1636.2416894694247
I78
tp4194
a(F1641.8719610542105
I78
tp4195
a(F1880.3394709550855
I77
tp4196
a(F1897.8310472854394
I77
tp4197
a(F1867.4953279304939
I77
tp4198
a(F1862.1994833309768
I77
tp4199
a(F1645.5378565572628
I78
tp4200
a(F1748.8408769705543
I77
tp4201
a(F1640.5981726152886
I78
tp4202
a(F1901.2287171336939
I77
tp4203
a(F1753.9907168710965
I77
tp4204
a(F1849.4189294103971
I77
tp4205
a(F1891.0672463295966
I77
tp4206
a(F1657.0732770132674
I78
tp4207
a(F1783.535010795508
I77
tp4208
a(F1857.1077349946456
I77
tp4209
a(F1884.3407265844182
I77
tp4210
a(F1912.3475722041953
I77
tp4211
a(F1761.436146036097
I77
tp4212
a(F1779.0851950281958
I77
tp4213
a(F1929.870450178672
I77
tp4214
a(F1938.9082333347908
I77
tp4215
a(F1786.5690848759646
I77
tp4216
a(F1786.3737966928777
I77
tp4217
a(F1669.8346070491348
I78
tp4218
a(F1655.3597241779742
I78
tp4219
a(F1885.4790093306276
I77
tp4220
a(F1690.2415797389879
I78
tp4221
a(F1671.8218838896469
I78
tp4222
a(F1694.1581830160242
I78
tp4223
a(F1962.5848828396963
I77
tp4224
a(F1907.6280446025385
I77
tp4225
a(F1973.4315446038352
I77
tp4226
a(F1971.9516386662606
I77
tp4227
a(F1925.8679988491688
I77
tp4228
a(F1952.8492219006275
I77
tp4229
a(F1998.8512691460303
I77
tp4230
a(F2015.9416260831563
I77
tp4231
a(F1983.9109662621504
I77
tp4232
a(F2011.2766022752155
I77
tp4233
a(F2029.2216636412893
I77
tp4234
a(F2029.8430994357868
I77
tp4235
a(F2066.1752112362274
I77
tp4236
a(F2095.8652639807583
I77
tp4237
a(F2097.3554615441813
I77
tp4238
a(F2117.8089337337283
I77
tp4239
a(F2095.334816034206
I77
tp4240
a(F2181.641760939412
I77
tp4241
a(F2238.2116387594115
I78
tp4242
a(F2232.582163768517
I78
tp4243
a(F1777.153882120185
I77
tp4244
a(F1936.8866861833824
I77
tp4245
a(F2066.3520378684125
I432
tp4246
a(F2005.6318757081824
I432
tp4247
a(F1984.8274106858996
I432
tp4248
a(F2019.1907540244322
I432
tp4249
a(F1950.9943063922403
I432
tp4250
a(F1997.596375668361
I432
tp4251
a(F1932.8137501854674
I432
tp4252
a(F1967.4289243602402
I432
tp4253
a(F1942.7245335132409
I432
tp4254
a(F1913.808162809748
I440
tp4255
a(F1871.5599462655966
I440
tp4256
a(F1940.3989514444868
I440
tp4257
a(F1853.4015059479887
I440
tp4258
a(F1905.2502248784292
I440
tp4259
a(F1829.5572603273665
I440
tp4260
a(F1805.1526943964498
I440
tp4261
a(F1865.3703591453059
I440
tp4262
a(F1794.8864597970125
I440
tp4263
a(F1855.4336183386606
I440
tp4264
a(F1777.083962380493
I440
tp4265
a(F1764.1318704374999
I440
tp4266
a(F1820.141154312672
I440
tp4267
a(F1735.8420352743
I440
tp4268
a(F1794.4026214277503
I440
tp4269
a(F1749.9896217951505
I440
tp4270
a(F1779.3387874274738
I440
tp4271
a(F1548.8377186430498
I77
tp4272
a(F1551.308705368759
I77
tp4273
a(F1550.1633139565959
I77
tp4274
a(F1546.9751464626663
I77
tp4275
a(F1546.0777494683064
I77
tp4276
a(F1551.7241254898986
I77
tp4277
a(F1546.3264744081966
I77
tp4278
a(F1546.9418751406542
I77
tp4279
a(F1550.6890598838281
I77
tp4280
a(F1548.4621276697053
I77
tp4281
a(F1580.43187447824
I77
tp4282
a(F1572.5193962350377
I77
tp4283
a(F1592.0259932265806
I77
tp4284
a(F1570.0111245307587
I77
tp4285
a(F1573.6697750942863
I77
tp4286
a(F1609.5324030107142
I77
tp4287
a(F1573.9669573610101
I77
tp4288
a(F1580.6301204049792
I78
tp4289
a(F1566.5558957501678
I78
tp4290
a(F1640.3721036688278
I77
tp4291
a(F1597.0369697627239
I78
tp4292
a(F1573.8933942901144
I78
tp4293
a(F1646.6898715180537
I77
tp4294
a(F1639.8815813242722
I78
tp4295
a(F1624.635969641936
I78
tp4296
a(F1658.4195478140384
I78
tp4297
a(F1736.5798219328542
I77
tp4298
a(F1739.4488687903308
I77
tp4299
a(F1753.324758268277
I77
tp4300
a(F1637.770444804643
I78
tp4301
a(F1767.1367121496462
I77
tp4302
a(F1887.8839770683478
I77
tp4303
a(F1902.3403402800297
I77
tp4304
a(F1672.3526366872397
I78
tp4305
a(F1906.8051707994161
I77
tp4306
a(F1647.6695446872402
I78
tp4307
a(F1915.4298033837083
I77
tp4308
a(F1933.9723331913588
I77
tp4309
a(F1940.6569214502265
I77
tp4310
a(F1797.1991308112385
I77
tp4311
a(F1940.0429463145513
I77
tp4312
a(F1937.5050866988156
I77
tp4313
a(F1797.8268148929953
I77
tp4314
a(F1934.7180037764792
I77
tp4315
a(F1925.0633741058077
I77
tp4316
a(F1917.9558104435537
I77
tp4317
a(F1688.1012225370978
I78
tp4318
a(F1947.5330608030251
I77
tp4319
a(F1808.0580453801615
I77
tp4320
a(F1814.8275701942266
I77
tp4321
a(F1942.103302261379
I77
tp4322
a(F1951.2338719881427
I77
tp4323
a(F1915.1250327262985
I77
tp4324
a(F1952.0902953437046
I77
tp4325
a(F1819.325759028359
I77
tp4326
a(F1960.8822627283985
I77
tp4327
a(F1916.0672444226796
I77
tp4328
a(F1912.700280896449
I77
tp4329
a(F1932.3960516801474
I77
tp4330
a(F1942.2013211170663
I77
tp4331
a(F1930.3895143170337
I77
tp4332
a(F2000.3017079111441
I77
tp4333
a(F1949.3963182091484
I77
tp4334
a(F2029.9372035127037
I77
tp4335
a(F1979.1614249474167
I77
tp4336
a(F2037.3739229095554
I77
tp4337
a(F2015.314034481684
I77
tp4338
a(F2038.8588931313063
I77
tp4339
a(F2049.6085751624705
I77
tp4340
a(F2051.9656876478352
I77
tp4341
a(F2074.1316108855835
I77
tp4342
a(F2097.165057284249
I77
tp4343
a(F2079.156233107206
I77
tp4344
a(F2105.4154820239505
I77
tp4345
a(F2103.0927155977042
I77
tp4346
a(F2141.2000432868044
I77
tp4347
a(F2125.550887757947
I77
tp4348
a(F2160.6054118210095
I77
tp4349
a(F2171.1893199996584
I77
tp4350
a(F2180.4655899567997
I77
tp4351
a(F2209.7189550533617
I77
tp4352
a(F2219.8236127277783
I78
tp4353
a(F2246.869247146385
I77
tp4354
a(F2265.310782999905
I78
tp4355
a(F2246.7391976016384
I78
tp4356
a(F2254.648948583191
I78
tp4357
a(F2298.1782235338155
I78
tp4358
a(F2262.922135988314
I78
tp4359
a(F1813.2354379178478
I440
tp4360
a(F2095.620869496923
I432
tp4361
a(F2103.651020348994
I432
tp4362
a(F2062.911758894878
I432
tp4363
a(F2069.401950252843
I432
tp4364
a(F2033.6394105249096
I432
tp4365
a(F1993.7673703924072
I432
tp4366
a(F2044.4383743084038
I432
tp4367
a(F1973.5842644544703
I432
tp4368
a(F1979.703137055897
I432
tp4369
a(F1991.4078567104796
I432
tp4370
a(F1894.36217462506
I440
tp4371
a(F1931.660744278293
I440
tp4372
a(F1827.1668737124132
I440
tp4373
a(F1838.4418746784547
I440
tp4374
a(F1768.3692689711293
I440
tp4375
a(F1785.750359976
I440
tp4376
a(F1799.4865078431708
I440
tp4377
a(F1765.502133318634
I440
tp4378
a(F1776.8380480026815
I440
tp4379
a(F1795.7656906340005
I440
tp4380
a(F1607.0197914469616
I77
tp4381
a(F1603.2647404838576
I77
tp4382
a(F1619.2884455174126
I77
tp4383
a(F1594.4616400806717
I78
tp4384
a(F1635.6150234434026
I77
tp4385
a(F1660.93571623878
I77
tp4386
a(F1615.4090436079553
I78
tp4387
a(F1663.4504963656543
I77
tp4388
a(F1763.63005307064
I77
tp4389
a(F1768.3606050059261
I77
tp4390
a(F1743.754840281117
I77
tp4391
a(F1687.5993087566628
I78
tp4392
a(F1946.1680062107318
I77
tp4393
a(F1676.5706094261009
I78
tp4394
a(F1693.0084843601414
I78
tp4395
a(F1929.1421160540915
I77
tp4396
a(F1929.224939716054
I77
tp4397
a(F1975.9502118832158
I77
tp4398
a(F1954.7246909702867
I77
tp4399
a(F1675.394087108553
I78
tp4400
a(F1993.5461278865505
I77
tp4401
a(F1705.6365574605013
I78
tp4402
a(F1993.4924650356663
I77
tp4403
a(F1825.0581040568065
I77
tp4404
a(F1834.3188829327803
I77
tp4405
a(F1745.6515933818223
I78
tp4406
a(F1827.0739057631597
I77
tp4407
a(F1689.8821913459092
I78
tp4408
a(F1723.197674640253
I78
tp4409
a(F1728.3043128182924
I78
tp4410
a(F1827.0739087748518
I77
tp4411
a(F1845.00339442613
I77
tp4412
a(F1858.3440344400067
I77
tp4413
a(F1858.390008632508
I77
tp4414
a(F1971.9206705524168
I77
tp4415
a(F1984.5105566219781
I77
tp4416
a(F1993.9298166505791
I77
tp4417
a(F1965.1885183356396
I77
tp4418
a(F1976.6141559395708
I77
tp4419
a(F1961.421029620426
I77
tp4420
a(F1992.114178361925
I77
tp4421
a(F2004.0488864727295
I77
tp4422
a(F2009.7656262557744
I77
tp4423
a(F2058.889562060221
I77
tp4424
a(F2056.599223414341
I77
tp4425
a(F2065.931918205439
I77
tp4426
a(F2076.9058013907584
I77
tp4427
a(F2029.1027437650475
I77
tp4428
a(F2086.2579733419657
I77
tp4429
a(F2056.655270436357
I77
tp4430
a(F2065.672582510159
I77
tp4431
a(F2119.147655039502
I77
tp4432
a(F2112.4883635047527
I77
tp4433
a(F2084.4983009395696
I77
tp4434
a(F2110.6624459352975
I77
tp4435
a(F2127.0825848015006
I77
tp4436
a(F2110.2276285981825
I77
tp4437
a(F2130.0487564592395
I77
tp4438
a(F2140.8469424342225
I77
tp4439
a(F2148.7920774080535
I77
tp4440
a(F2153.527210655813
I77
tp4441
a(F2194.024435225725
I77
tp4442
a(F2205.9303560040416
I78
tp4443
a(F2261.648391361414
I77
tp4444
a(F2286.7915408376257
I77
tp4445
a(F2291.055437723586
I77
tp4446
a(F2302.571071036442
I77
tp4447
a(F2259.943641549704
I78
tp4448
a(F2316.100526660558
I77
tp4449
a(F2274.82957020288
I78
tp4450
a(F2282.529466260487
I78
tp4451
a(F2323.3586475136444
I77
tp4452
a(F2070.282967428841
I77
tp4453
a(F2050.165419677491
I77
tp4454
a(F2087.9578279178327
I432
tp4455
a(F2128.7797156033253
I432
tp4456
a(F2058.034511713096
I432
tp4457
a(F2036.4692304008186
I432
tp4458
a(F2076.3815181456443
I432
tp4459
a(F2018.1887661059443
I432
tp4460
a(F2051.167074675229
I432
tp4461
a(F2038.392378862109
I432
tp4462
a(F1916.2583599568184
I440
tp4463
a(F1946.366949319472
I440
tp4464
a(F1940.465352504726
I440
tp4465
a(F1925.457860294214
I440
tp4466
a(F1913.7518413995197
I440
tp4467
a(F1891.1633519068523
I440
tp4468
a(F1859.4858459736333
I440
tp4469
a(F1859.6444799598123
I440
tp4470
a(F1856.6061192370198
I440
tp4471
a(F1756.7855935888817
I440
tp4472
a(F1748.304705339882
I440
tp4473
a(F1734.2202743184148
I440
tp4474
a(F1746.9550881410971
I440
tp4475
a(F1782.4744373921242
I440
tp4476
a(F1620.6854243978403
I77
tp4477
a(F1629.6624206560075
I77
tp4478
a(F1645.7244466206935
I77
tp4479
a(F1617.8594312306245
I78
tp4480
a(F1623.7330800042432
I78
tp4481
a(F1671.9289379498603
I77
tp4482
a(F1640.4814304551037
I78
tp4483
a(F1773.7256548938685
I77
tp4484
a(F1671.4486842420058
I78
tp4485
a(F1775.8963959811683
I77
tp4486
a(F1773.422372084459
I77
tp4487
a(F1777.732751050107
I77
tp4488
a(F1774.6864818963572
I77
tp4489
a(F1778.4233486172245
I77
tp4490
a(F1776.6943482487084
I77
tp4491
a(F1984.987456381994
I77
tp4492
a(F1997.0701540163957
I77
tp4493
a(F1952.8950155599478
I77
tp4494
a(F1937.2508065597885
I77
tp4495
a(F2011.2405232665758
I77
tp4496
a(F1964.2061045911357
I77
tp4497
a(F2015.5845811610627
I77
tp4498
a(F1847.2374957224374
I77
tp4499
a(F1851.8999328845146
I77
tp4500
a(F1847.034187535781
I77
tp4501
a(F1848.5537291444796
I77
tp4502
a(F1857.9329458708648
I77
tp4503
a(F1860.235651815297
I77
tp4504
a(F1849.4917900430603
I77
tp4505
a(F1851.0266019278824
I77
tp4506
a(F1865.7105263051828
I77
tp4507
a(F1855.2982968023887
I77
tp4508
a(F1870.218897875878
I77
tp4509
a(F1856.8541595197626
I77
tp4510
a(F1872.3718529808395
I77
tp4511
a(F1859.0854945487768
I77
tp4512
a(F1875.1438566926174
I77
tp4513
a(F1861.2461624238615
I77
tp4514
a(F1879.4851851451722
I77
tp4515
a(F1881.7288529936195
I77
tp4516
a(F1883.9147340041593
I77
tp4517
a(F1886.207417589166
I77
tp4518
a(F1876.9792747593624
I77
tp4519
a(F1888.4051235690051
I77
tp4520
a(F1879.2995266858525
I77
tp4521
a(F1882.1861960465499
I77
tp4522
a(F1889.3884779473995
I77
tp4523
a(F1887.5576867455973
I77
tp4524
a(F1886.2542444783744
I77
tp4525
a(F1884.4373895156832
I77
tp4526
a(F2014.5249114629032
I77
tp4527
a(F2013.881930431102
I77
tp4528
a(F2027.7576353217264
I77
tp4529
a(F2056.7208955811197
I77
tp4530
a(F2071.386970316244
I77
tp4531
a(F2026.0305693143866
I77
tp4532
a(F2087.6149509789393
I77
tp4533
a(F2049.084931187956
I77
tp4534
a(F2051.8166766794357
I77
tp4535
a(F2047.3942842930485
I77
tp4536
a(F2054.367667529274
I77
tp4537
a(F2047.0027590065408
I77
tp4538
a(F2057.1078593285197
I77
tp4539
a(F2047.876738065441
I77
tp4540
a(F2059.4521752060773
I77
tp4541
a(F2054.767926348294
I77
tp4542
a(F2054.399136029331
I77
tp4543
a(F2069.0439001531704
I77
tp4544
a(F2069.6949052188515
I77
tp4545
a(F2056.026898885825
I77
tp4546
a(F2058.391218449229
I77
tp4547
a(F2096.329713101427
I77
tp4548
a(F2072.937866681216
I77
tp4549
a(F2061.1222890193562
I77
tp4550
a(F2073.8284134779306
I77
tp4551
a(F2066.2324580849954
I77
tp4552
a(F2047.319025991759
I77
tp4553
a(F2073.449221652024
I77
tp4554
a(F2071.764204282155
I77
tp4555
a(F2082.9973781616436
I77
tp4556
a(F2049.9515671622903
I77
tp4557
a(F2116.478135438895
I77
tp4558
a(F2114.178066763276
I77
tp4559
a(F2113.2282708920516
I77
tp4560
a(F2119.0774398947865
I77
tp4561
a(F2067.5384410268584
I77
tp4562
a(F2122.488325242509
I77
tp4563
a(F2113.2941231978925
I77
tp4564
a(F2092.2412762582603
I77
tp4565
a(F2114.941429533865
I77
tp4566
a(F2126.7735003510325
I77
tp4567
a(F2115.0710107153354
I77
tp4568
a(F2126.3113965285147
I77
tp4569
a(F2092.710466789467
I77
tp4570
a(F2114.265111097768
I77
tp4571
a(F2116.7320519103
I77
tp4572
a(F2127.966107487392
I77
tp4573
a(F2127.5514043219705
I77
tp4574
a(F2117.6422474286705
I77
tp4575
a(F2117.2541867954596
I77
tp4576
a(F2086.9790983089247
I77
tp4577
a(F2128.454492574072
I77
tp4578
a(F2112.6691381426426
I77
tp4579
a(F2119.688674986821
I77
tp4580
a(F2127.617059630131
I77
tp4581
a(F2123.056163416589
I77
tp4582
a(F2125.9232716867705
I77
tp4583
a(F2064.829318152301
I77
tp4584
a(F2125.378222732296
I77
tp4585
a(F2086.5604809043557
I77
tp4586
a(F2095.8181754560305
I77
tp4587
a(F2118.2862554498097
I77
tp4588
a(F2177.5231793638486
I77
tp4589
a(F2201.802223783773
I77
tp4590
a(F2210.457332218938
I77
tp4591
a(F2286.4947269993677
I77
tp4592
a(F2302.527293296302
I77
tp4593
a(F2324.8408600577613
I77
tp4594
a(F2298.424281649241
I78
tp4595
a(F2104.110280889646
I77
tp4596
a(F2139.221552197905
I432
tp4597
a(F2183.5393117795534
I432
tp4598
a(F2110.2782826118228
I432
tp4599
a(F2150.603233736943
I432
tp4600
a(F2062.4853965802317
I432
tp4601
a(F2122.3784984589242
I432
tp4602
a(F2100.4862680173665
I432
tp4603
a(F1965.631488586347
I440
tp4604
a(F1951.4798220423597
I440
tp4605
a(F1910.6483548093327
I440
tp4606
a(F1914.5300038744783
I440
tp4607
a(F1902.0555028010117
I440
tp4608
a(F1905.935763800976
I440
tp4609
a(F1917.7179499956737
I440
tp4610
a(F1899.4257384103253
I440
tp4611
a(F1917.1661732191108
I440
tp4612
a(F1898.8802320672069
I440
tp4613
a(F1914.53783867951
I440
tp4614
a(F1962.782414873014
I440
tp4615
a(F1902.0739038574736
I440
tp4616
a(F1905.125490810411
I440
tp4617
a(F1909.0037023891832
I440
tp4618
a(F1722.7043088515247
I440
tp4619
a(F1730.3589615266567
I440
tp4620
a(F1712.00179197792
I440
tp4621
a(F1745.6695379525902
I440
tp4622
a(F1710.6773908997598
I440
tp4623
a(F1748.9245654789145
I440
tp4624
a(F1712.2240319933633
I440
tp4625
a(F1753.9136625659798
I440
tp4626
a(F1717.2393938340715
I440
tp4627
a(F1720.3037916994806
I440
tp4628
a(F1726.8379008278714
I440
tp4629
a(F1755.8909805952103
I440
tp4630
a(F1736.0366170491939
I440
tp4631
a(F1739.854918013456
I440
tp4632
a(F1742.9220108012894
I440
tp4633
a(F1750.5613773117495
I440
tp4634
a(F1657.7184037367147
I77
tp4635
a(F1623.849060534611
I77
tp4636
a(F1644.1661646479993
I78
tp4637
a(F1670.3435447297495
I78
tp4638
a(F1684.7013170310163
I78
tp4639
a(F1730.8093704256817
I78
tp4640
a(F1663.46893849753
I78
tp4641
a(F1678.4935198193082
I78
tp4642
a(F1704.797608842356
I78
tp4643
a(F1743.4660447392148
I78
tp4644
a(F1983.0146170458092
I77
tp4645
a(F2042.181208534072
I77
tp4646
a(F2030.6012936935895
I77
tp4647
a(F1786.2238859910065
I78
tp4648
a(F1757.8813743508204
I78
tp4649
a(F2073.934006920212
I77
tp4650
a(F2084.727065324551
I77
tp4651
a(F2096.731053678307
I77
tp4652
a(F2057.0252828613247
I77
tp4653
a(F2089.3406037986097
I77
tp4654
a(F2099.483592653152
I77
tp4655
a(F2094.9479793054015
I77
tp4656
a(F2092.6879547805943
I77
tp4657
a(F2133.7431086986862
I77
tp4658
a(F2132.0084710388523
I77
tp4659
a(F2136.382539701634
I77
tp4660
a(F2122.8096054642833
I77
tp4661
a(F2138.802507282906
I77
tp4662
a(F2140.4707342039615
I77
tp4663
a(F2130.4453527325254
I77
tp4664
a(F2141.388977372865
I77
tp4665
a(F2131.3820050735
I77
tp4666
a(F2131.023808297816
I77
tp4667
a(F2140.228032298896
I77
tp4668
a(F2126.016216129154
I77
tp4669
a(F2123.791776879298
I77
tp4670
a(F2136.82373344265
I77
tp4671
a(F2136.1326896998057
I77
tp4672
a(F2131.665074207514
I77
tp4673
a(F2127.2181621047066
I77
tp4674
a(F2134.4536813085483
I77
tp4675
a(F2129.9975676614313
I77
tp4676
a(F2202.8712334232914
I77
tp4677
a(F2217.250156185299
I77
tp4678
a(F2229.6640029584423
I77
tp4679
a(F2276.692992255136
I77
tp4680
a(F2244.907775060434
I77
tp4681
a(F2289.9711775137957
I77
tp4682
a(F2307.7194864819007
I77
tp4683
a(F2265.382254862382
I77
tp4684
a(F2298.689192968843
I77
tp4685
a(F2329.5162752172077
I77
tp4686
a(F2323.952287278202
I78
tp4687
a(F2348.337860329929
I77
tp4688
a(F2334.2394435111737
I78
tp4689
a(F2260.246072686159
I77
tp4690
a(F2169.9592329457796
I432
tp4691
a(F2188.2352124690005
I432
tp4692
a(F2089.950608732292
I432
tp4693
a(F2120.2033725993915
I432
tp4694
a(F2082.4881321142802
I432
tp4695
a(F2085.3858883580297
I432
tp4696
a(F1982.2228531919375
I440
tp4697
a(F1966.6138340294344
I440
tp4698
a(F1996.2765880790748
I440
tp4699
a(F1961.3498034056554
I440
tp4700
a(F1984.8473093323255
I440
tp4701
a(F1681.286533723335
I78
tp4702
a(F1668.0596296797169
I77
tp4703
a(F1667.1736848599269
I78
tp4704
a(F1682.0116044976455
I78
tp4705
a(F1696.5494421304684
I78
tp4706
a(F1705.6243113947826
I78
tp4707
a(F2030.9311065979618
I77
tp4708
a(F2028.8282278858214
I77
tp4709
a(F2056.1152410420714
I77
tp4710
a(F2047.0926934001209
I77
tp4711
a(F2058.9830161727177
I77
tp4712
a(F1765.1901405488647
I78
tp4713
a(F1762.3471230161717
I78
tp4714
a(F1781.6306293933683
I78
tp4715
a(F1791.4043028833885
I78
tp4716
a(F2102.409536107006
I77
tp4717
a(F2110.250115742898
I77
tp4718
a(F2130.757740413271
I77
tp4719
a(F2133.904015536123
I77
tp4720
a(F2131.661496247348
I77
tp4721
a(F2138.7340827949392
I77
tp4722
a(F2133.340182481801
I77
tp4723
a(F2141.3575547384844
I77
tp4724
a(F2136.69756995818
I77
tp4725
a(F2140.959024400748
I77
tp4726
a(F2139.3202629240022
I77
tp4727
a(F2209.3958445952576
I77
tp4728
a(F2223.4323955943933
I77
tp4729
a(F2237.2085440936644
I77
tp4730
a(F2287.8837453545057
I77
tp4731
a(F2290.687507922718
I77
tp4732
a(F2288.26963449743
I77
tp4733
a(F2298.7105725395686
I77
tp4734
a(F2308.889523094893
I77
tp4735
a(F2304.3078158165767
I77
tp4736
a(F2294.441296880677
I77
tp4737
a(F2311.859379807427
I77
tp4738
a(F2296.3772478492037
I77
tp4739
a(F2314.5473679121847
I77
tp4740
a(F2318.409609184111
I77
tp4741
a(F2304.4775336217717
I77
tp4742
a(F2321.111453591512
I77
tp4743
a(F2307.9430487867335
I77
tp4744
a(F2323.0551389964257
I77
tp4745
a(F2324.242567467781
I77
tp4746
a(F2313.376620324793
I77
tp4747
a(F2328.1574495891
I77
tp4748
a(F2319.0519422482157
I77
tp4749
a(F2322.6019706998877
I77
tp4750
a(F2330.8823166590164
I77
tp4751
a(F2332.852154110436
I77
tp4752
a(F2328.2947179276302
I77
tp4753
a(F2331.2130845791835
I77
tp4754
a(F2334.068873565907
I77
tp4755
a(F2178.479225229003
I432
tp4756
a(F2207.087878078109
I432
tp4757
a(F2206.9360500855487
I432
tp4758
a(F2149.7212360076683
I432
tp4759
a(F2130.923047456062
I432
tp4760
a(F2112.651043384149
I432
tp4761
a(F2174.266286214929
I432
tp4762
a(F2107.9056680480794
I432
tp4763
a(F2159.527227791669
I432
tp4764
a(F2138.2183471583767
I432
tp4765
a(F2116.1374154633436
I432
tp4766
a(F1990.8699731524407
I440
tp4767
a(F1988.0792866482966
I440
tp4768
a(F1998.4029248377315
I440
tp4769
a(F1984.9401124467206
I440
tp4770
a(F1998.9032617913253
I440
tp4771
a(F1983.7618934741135
I440
tp4772
a(F2000.3817760617596
I440
tp4773
a(F1985.1194548439648
I440
tp4774
a(F1999.7978022790205
I440
tp4775
a(F1989.7857296704085
I440
tp4776
a(F1992.826949336043
I440
tp4777
a(F1996.7050984058712
I440
tp4778
a(F1703.152009880197
I78
tp4779
a(F1703.6963392272603
I78
tp4780
a(F1711.9993697250998
I78
tp4781
a(F1739.2394175560887
I78
tp4782
a(F1752.881301880692
I78
tp4783
a(F1734.144438899727
I78
tp4784
a(F1723.8174515443252
I78
tp4785
a(F2093.6712072317287
I77
tp4786
a(F1770.9663106323258
I78
tp4787
a(F2066.2483329192028
I77
tp4788
a(F2088.414470668796
I77
tp4789
a(F2088.2007372606363
I77
tp4790
a(F2081.24952464647
I77
tp4791
a(F1771.2396282557788
I78
tp4792
a(F1780.0567995970016
I78
tp4793
a(F1804.7268521021915
I78
tp4794
a(F1804.8055339033358
I78
tp4795
a(F2122.6658500384833
I77
tp4796
a(F1819.8006378980594
I78
tp4797
a(F2126.6965645099503
I77
tp4798
a(F2139.685796249165
I77
tp4799
a(F2134.791185466097
I77
tp4800
a(F2212.532371938084
I77
tp4801
a(F2215.1801164722174
I77
tp4802
a(F2211.941498134065
I77
tp4803
a(F2213.007583011656
I77
tp4804
a(F2221.6390370031054
I77
tp4805
a(F2215.5540141462525
I77
tp4806
a(F2222.705347533857
I77
tp4807
a(F2218.2582046145135
I77
tp4808
a(F1920.777837932874
I79
tp4809
a(F1919.7296432274222
I79
tp4810
a(F1925.7899940305242
I79
tp4811
a(F1922.576995151062
I79
tp4812
a(F1919.433641327589
I79
tp4813
a(F1918.4013927882993
I79
tp4814
a(F1928.6594334930373
I79
tp4815
a(F1927.5657215238302
I79
tp4816
a(F1932.2581735429558
I78
tp4817
a(F1931.1852964497111
I78
tp4818
a(F1919.848824795245
I79
tp4819
a(F1934.730427506713
I78
tp4820
a(F1936.8836726253442
I78
tp4821
a(F1940.5228066801144
I78
tp4822
a(F1923.480598995915
I79
tp4823
a(F1942.66525566603
I78
tp4824
a(F1945.2277800052577
I78
tp4825
a(F1924.9832729621537
I79
tp4826
a(F1950.7544225965974
I78
tp4827
a(F1953.2815892161173
I78
tp4828
a(F1952.8523874124276
I78
tp4829
a(F1954.2931752762204
I78
tp4830
a(F1953.8876928073896
I78
tp4831
a(F1955.3168618554662
I78
tp4832
a(F1954.9768015104646
I79
tp4833
a(F1955.2702890102144
I79
tp4834
a(F1936.0873437818052
I79
tp4835
a(F1954.9211479842572
I79
tp4836
a(F1950.5523054776272
I79
tp4837
a(F1951.2487198990507
I79
tp4838
a(F1952.7201049408197
I79
tp4839
a(F1952.4282823289786
I79
tp4840
a(F1954.2871735488836
I79
tp4841
a(F1956.4948137691763
I79
tp4842
a(F1958.3670482368943
I79
tp4843
a(F1960.9271163206663
I79
tp4844
a(F1951.6124116986155
I79
tp4845
a(F1962.8114262037723
I79
tp4846
a(F1953.5394466587265
I79
tp4847
a(F1954.4072012013473
I79
tp4848
a(F1971.7675048717297
I79
tp4849
a(F1960.2268000707684
I79
tp4850
a(F1960.0213790364855
I79
tp4851
a(F1974.3588207744012
I79
tp4852
a(F1976.2789004804172
I79
tp4853
a(F1961.8548245927077
I79
tp4854
a(F1978.8804795605226
I79
tp4855
a(F1963.8349976441723
I79
tp4856
a(F1981.149553161922
I79
tp4857
a(F1966.4215092379568
I79
tp4858
a(F1981.9285085350798
I79
tp4859
a(F1968.0915085122658
I79
tp4860
a(F1967.9236535363063
I79
tp4861
a(F1985.8234346663567
I79
tp4862
a(F1986.6788548387185
I79
tp4863
a(F1971.9415860095055
I79
tp4864
a(F1972.8943079713329
I79
tp4865
a(F1988.9738239261173
I79
tp4866
a(F1974.9199216160857
I79
tp4867
a(F1990.9438999513984
I79
tp4868
a(F1991.8170472314177
I79
tp4869
a(F1976.641381141679
I79
tp4870
a(F1994.1275659419796
I79
tp4871
a(F1978.9696180714054
I79
tp4872
a(F1998.0875324785163
I79
tp4873
a(F1997.8469187732287
I79
tp4874
a(F1994.9027820111144
I79
tp4875
a(F1991.0829987993177
I79
tp4876
a(F1989.2186172775691
I79
tp4877
a(F1987.3846901241047
I79
tp4878
a(F1986.4791733485865
I79
tp4879
a(F1994.6947168266342
I79
tp4880
a(F1992.7855410334766
I79
tp4881
a(F1989.058222120229
I79
tp4882
a(F1986.3427221424017
I79
tp4883
a(F1985.452847442136
I79
tp4884
a(F2221.3997326502595
I707
tp4885
a(F2213.301589601962
I707
tp4886
a(F2217.213883688845
I707
tp4887
a(F2225.0394075158697
I707
tp4888
a(F2228.95263397107
I707
tp4889
a(F2236.2396127880943
I707
tp4890
a(F2196.5586551886745
I707
tp4891
a(F2238.247768171195
I707
tp4892
a(F2193.373149808007
I707
tp4893
a(F2244.5719279791588
I432
tp4894
a(F2185.0032534867155
I707
tp4895
a(F2243.9188293527104
I432
tp4896
a(F2181.820778503769
I707
tp4897
a(F2177.63638742708
I707
tp4898
a(F2240.852012391733
I432
tp4899
a(F2173.1837462577323
I707
tp4900
a(F2168.999906255061
I707
tp4901
a(F2233.798048833807
I432
tp4902
a(F2162.7438459666682
I707
tp4903
a(F2229.6129602007936
I432
tp4904
a(F2160.677497199101
I707
tp4905
a(F2226.642781271779
I432
tp4906
a(F2157.5070170517483
I707
tp4907
a(F2153.302194927239
I707
tp4908
a(F2219.3192502489865
I432
tp4909
a(F2207.4682682808616
I432
tp4910
a(F2203.9161508021252
I432
tp4911
a(F2139.515475020176
I432
tp4912
a(F2138.889897575462
I432
tp4913
a(F2194.5142565293054
I432
tp4914
a(F2191.508015527849
I432
tp4915
a(F2188.050376272655
I432
tp4916
a(F2135.235646835817
I432
tp4917
a(F2185.050007742465
I432
tp4918
a(F2181.594603389832
I432
tp4919
a(F2133.8635451487544
I432
tp4920
a(F2178.6001551418467
I432
tp4921
a(F2132.0591610222286
I432
tp4922
a(F2131.4790619225823
I432
tp4923
a(F2132.550445973255
I432
tp4924
a(F2135.438078135273
I432
tp4925
a(F2164.619062697552
I432
tp4926
a(F2136.6089640107534
I432
tp4927
a(F2156.4458886065954
I432
tp4928
a(F2142.4121411545575
I432
tp4929
a(F2152.907920469999
I432
tp4930
a(F1727.6315326515248
I78
tp4931
a(F1730.443258686409
I78
tp4932
a(F1745.327634390401
I78
tp4933
a(F1733.5317252026523
I78
tp4934
a(F1763.5638402001803
I78
tp4935
a(F1761.6763567733237
I78
tp4936
a(F2127.8932092363257
I77
tp4937
a(F2096.9733416477343
I77
tp4938
a(F2151.9272778679574
I77
tp4939
a(F2119.3254836256024
I77
tp4940
a(F2159.0040698556036
I77
tp4941
a(F1821.2021126561872
I78
tp4942
a(F1856.921336324661
I78
tp4943
a(F1832.8736618734954
I78
tp4944
a(F1829.235610232282
I78
tp4945
a(F2146.8557453559147
I77
tp4946
a(F2145.3236340911753
I77
tp4947
a(F2155.0016852823396
I77
tp4948
a(F1848.1230982583743
I78
tp4949
a(F1850.7644019342763
I78
tp4950
a(F1851.5313028559078
I78
tp4951
a(F1910.8577436688506
I79
tp4952
a(F1920.8755091911344
I78
tp4953
a(F1931.456120037572
I78
tp4954
a(F1916.271944041298
I79
tp4955
a(F1924.0729210192533
I79
tp4956
a(F1947.237820025815
I78
tp4957
a(F1955.752238601307
I79
tp4958
a(F1954.3437055600043
I79
tp4959
a(F1976.8846286752957
I79
tp4960
a(F1987.2491584141465
I79
tp4961
a(F1970.665765968913
I79
tp4962
a(F1979.7374847757383
I79
tp4963
a(F1992.2558309595297
I79
tp4964
a(F2000.1012417278273
I79
tp4965
a(F2011.8022450164374
I79
tp4966
a(F1769.0245254762108
I78
tp4967
a(F1767.6762413425333
I78
tp4968
a(F1778.3672693129636
I78
tp4969
a(F1773.7093486758001
I78
tp4970
a(F1788.8386818128347
I78
tp4971
a(F2119.2432354007547
I77
tp4972
a(F2112.403545613976
I77
tp4973
a(F2155.2831429382036
I77
tp4974
a(F1794.9617576253488
I78
tp4975
a(F2118.4897013676814
I77
tp4976
a(F2133.944316878068
I77
tp4977
a(F2152.0653104817657
I77
tp4978
a(F2179.6803716908908
I77
tp4979
a(F2174.787638686875
I77
tp4980
a(F1820.9515926787758
I78
tp4981
a(F1833.673316085508
I78
tp4982
a(F2160.4202755739416
I77
tp4983
a(F1878.3303076160325
I78
tp4984
a(F1885.9109870825237
I78
tp4985
a(F1896.7302917171091
I78
tp4986
a(F1891.2890383069869
I78
tp4987
a(F1889.1853323878315
I78
tp4988
a(F1893.0207793497934
I78
tp4989
a(F1895.5547975821542
I78
tp4990
a(F1898.2630610323297
I78
tp4991
a(F1887.8030051371632
I78
tp4992
a(F1895.93337493906
I78
tp4993
a(F1905.6042038736255
I78
tp4994
a(F1918.155886448745
I78
tp4995
a(F1914.4462117348023
I79
tp4996
a(F1939.4078157611136
I78
tp4997
a(F1930.8535340668611
I79
tp4998
a(F1960.1058550747023
I79
tp4999
a(F1969.986857733259
I79
tp5000
a(F1946.0148458043934
I79
tp5001
a(F1965.6030823603053
I79
tp5002
a(F1974.3634673903991
I79
tp5003
a(F1992.043944781678
I79
tp5004
a(F1990.1919333855703
I79
tp5005
a(F2005.1370498113886
I79
tp5006
a(F1998.092847281873
I79
tp5007
a(F2017.7498577925146
I79
tp5008
a(F2005.53114533226
I79
tp5009
a(F2016.2308562384267
I79
tp5010
a(F1795.6222402036938
I78
tp5011
a(F1826.5698054870566
I78
tp5012
a(F2150.6191761518367
I77
tp5013
a(F2154.172453256037
I77
tp5014
a(F2145.2320172576733
I77
tp5015
a(F2159.7652854719295
I77
tp5016
a(F2145.773491753914
I77
tp5017
a(F2143.9103989747346
I77
tp5018
a(F1792.0415891975172
I78
tp5019
a(F2166.2281865101686
I77
tp5020
a(F2169.0248512535363
I77
tp5021
a(F2143.2232752252917
I77
tp5022
a(F2171.4964486136037
I77
tp5023
a(F2174.3009994390804
I77
tp5024
a(F2143.7851471884455
I77
tp5025
a(F2145.12432201814
I77
tp5026
a(F2181.709502936123
I77
tp5027
a(F2147.2393453668424
I77
tp5028
a(F2149.6964122772065
I77
tp5029
a(F2183.8329613364267
I77
tp5030
a(F2155.2517516002636
I77
tp5031
a(F2186.3271170740877
I77
tp5032
a(F2157.6799373678914
I77
tp5033
a(F1812.2460307640522
I78
tp5034
a(F2187.6671278029235
I77
tp5035
a(F2171.2079553995113
I77
tp5036
a(F2168.8601950992893
I77
tp5037
a(F2188.2150112645727
I77
tp5038
a(F2186.2739416824934
I77
tp5039
a(F2181.527645635486
I77
tp5040
a(F2179.637378906438
I77
tp5041
a(F1857.946154773032
I78
tp5042
a(F1826.8465052939207
I78
tp5043
a(F1895.872862402415
I78
tp5044
a(F1887.1676535599931
I78
tp5045
a(F2191.4193758627925
I77
tp5046
a(F1897.976418471073
I78
tp5047
a(F1907.5317005521365
I78
tp5048
a(F1899.8663257588282
I78
tp5049
a(F1930.3687516295497
I78
tp5050
a(F1899.8275711948454
I79
tp5051
a(F1924.5342912821438
I79
tp5052
a(F1931.3230674664624
I79
tp5053
a(F1948.5756974285007
I78
tp5054
a(F1946.2294735917912
I79
tp5055
a(F1973.7685890560035
I79
tp5056
a(F1967.8610512804714
I79
tp5057
a(F1817.2169633393412
I78
tp5058
a(F1796.4113571535256
I78
tp5059
a(F1839.989556906783
I78
tp5060
a(F1833.6311795415374
I78
tp5061
a(F1843.2596737508807
I78
tp5062
a(F1863.3782517735867
I78
tp5063
a(F1851.745432003063
I78
tp5064
a(F1887.6592435895727
I78
tp5065
a(F2199.0535661434287
I77
tp5066
a(F2192.432075962033
I77
tp5067
a(F2199.3314435248967
I77
tp5068
a(F1917.512422127794
I78
tp5069
a(F1908.1336552287305
I79
tp5070
a(F1956.4309811275741
I78
tp5071
a(F1843.5585870842265
I78
tp5072
a(F1843.9411816545983
I78
tp5073
a(F1838.7419470641619
I78
tp5074
a(F1864.9474768423431
I78
tp5075
a(F1857.3475263117316
I78
tp5076
a(F1842.2006427467138
I78
tp5077
a(F1876.7475214372698
I78
tp5078
a(F1844.6992694922674
I78
tp5079
a(F1885.076405814454
I78
tp5080
a(F2194.958211218693
I77
tp5081
a(F2202.018273092262
I77
tp5082
a(F2214.593890850443
I77
tp5083
a(F1952.8324825215534
I78
tp5084
a(F1954.5223150292347
I78
tp5085
a(F1852.6587916790622
I78
tp5086
a(F1867.0957766480062
I78
tp5087
a(F1855.7213989124875
I78
tp5088
a(F1854.7627190934559
I78
tp5089
a(F1858.7631620602717
I78
tp5090
a(F1878.0040029069605
I78
tp5091
a(F1863.2439452836898
I78
tp5092
a(F1864.5641834488563
I78
tp5093
a(F1873.6325554143655
I78
tp5094
a(F1869.9380688463525
I78
tp5095
a(F1888.1083514997094
I78
tp5096
a(F1911.5137171720337
I78
tp5097
a(F1894.2518418344891
I78
tp5098
a(F1918.4661407632987
I78
tp5099
a(F1911.905333996675
I78
tp5100
a(F2224.816633717364
I77
tp5101
a(F2214.2304846736515
I77
tp5102
a(F2205.7045199268136
I77
tp5103
a(F1934.8812858622748
I78
tp5104
a(F1932.4802285484775
I79
tp5105
a(F1957.9977032104327
I78
tp5106
a(F1962.4253374690622
I78
tp5107
a(F1956.6661109542224
I79
tp5108
a.