(lp0
(F655.8444819711613
I83
tp1
a(F980.8363617074579
I93
tp2
a(F189.6239231476276
I18
tp3
a(F737.5670188937513
I32
tp4
a(F138.32721639439367
I22
tp5
a(F188.96732266147725
I14
tp6
a(F50.87118478499377
I9
tp7
a(F958.7935455730018
I94
tp8
a(F1001.1477940261761
I94
tp9
a(F926.8680883353461
I94
tp10
a(F915.8624761646363
I94
tp11
a(F921.210310651147
I94
tp12
a(F904.9148023045607
I94
tp13
a(F1037.148629270821
I94
tp14
a(F1041.8027295117192
I94
tp15
a(F1027.5330598456528
I94
tp16
a(F1048.8893888492805
I94
tp17
a(F1024.3064614004056
I94
tp18
a(F1036.549075973549
I94
tp19
a(F665.6294130717949
I83
tp20
a(F1071.5590814874556
I93
tp21
a(F682.5929862066058
I83
tp22
a(F628.7515200434826
I83
tp23
a(F667.5491841979082
I83
tp24
a(F896.3705797687768
I93
tp25
a(F640.8812606456625
I83
tp26
a(F1092.8763518956953
I93
tp27
a(F1099.5873352776632
I93
tp28
a(F895.4894477608615
I83
tp29
a(F1056.1530194562172
I84
tp30
a(F998.007260837728
I84
tp31
a(F1028.3949607955128
I84
tp32
a(F961.2668897488658
I84
tp33
a(F889.7452204497835
I84
tp34
a(F1037.1340073201027
I84
tp35
a(F954.0486646466175
I84
tp36
a(F949.2562708922239
I84
tp37
a(F901.9347247180523
I84
tp38
a(F928.9267677064648
I32
tp39
a(F825.1622537900229
I32
tp40
a(F840.1054648744616
I32
tp41
a(F849.0158806193999
I32
tp42
a(F811.8306633585801
I32
tp43
a(F736.1031736855938
I32
tp44
a(F805.9729805345382
I32
tp45
a(F846.4093819534
I32
tp46
a(F780.8408550851993
I32
tp47
a(F768.5401364888253
I32
tp48
a(F832.3634740143006
I32
tp49
a(F803.5233538244711
I32
tp50
a(F206.5989340112878
I30
tp51
a(F174.10813776857776
I26
tp52
a(F154.20667252046158
I22
tp53
a(F189.34831298544267
I18
tp54
a(F207.92028973224157
I18
tp55
a(F657.8432936922437
I32
tp56
a(F776.9300872103044
I32
tp57
a(F172.36895533273892
I18
tp58
a(F136.1796279033946
I18
tp59
a(F207.8537230682014
I9
tp60
a(F176.4646931041168
I22
tp61
a(F663.0998840210406
I32
tp62
a(F170.9856387364031
I14
tp63
a(F686.7163809405271
I32
tp64
a(F200.99105238943946
I9
tp65
a(F169.5100762036814
I9
tp66
a(F706.909797387794
I32
tp67
a(F774.7556399575681
I32
tp68
a(F104.0429204961209
I14
tp69
a(F790.4212046306546
I32
tp70
a(F77.13963712793196
I9
tp71
a(F79.12109738397783
I11
tp72
a(F730.4365214858512
I32
tp73
a(F49.39089434729407
I8
tp74
a(F806.2612969214944
I32
tp75
a(F57.77485182702816
I9
tp76
a(F733.492104336629
I32
tp77
a(F782.6970735861904
I32
tp78
a(F772.9704095848363
I32
tp79
a(F27.14030143949351
I4
tp80
a(F768.6544309846024
I32
tp81
a(F742.1338822559759
I20
tp82
a(F39.704653626363665
I2
tp83
a(F10.134125883263096
I0
tp84
a(F4.824880303132254
I2
tp85
a(F37.83212710341338
I2
tp86
a(F61.44195736597301
I3
tp87
a(F77.48933214750129
I3
tp88
a(F80.87082856433601
I3
tp89
a(F39.092481599557544
I3
tp90
a(F816.0520547597131
I32
tp91
a(F909.4629870599887
I94
tp92
a(F888.1406587253744
I94
tp93
a(F878.9885745904397
I94
tp94
a(F925.9985010760977
I94
tp95
a(F881.0677936857048
I94
tp96
a(F889.5644556206328
I94
tp97
a(F894.4009490098557
I94
tp98
a(F1008.263835690494
I94
tp99
a(F985.9274256901153
I94
tp100
a(F930.0508633350494
I94
tp101
a(F888.9032246317711
I94
tp102
a(F1020.3797253686721
I94
tp103
a(F1042.4732152010981
I94
tp104
a(F1065.1177158127364
I93
tp105
a(F653.0110415178395
I83
tp106
a(F880.4683307942561
I94
tp107
a(F630.9274643304003
I83
tp108
a(F1079.9055795867775
I93
tp109
a(F664.4954351591862
I83
tp110
a(F615.9963510316248
I83
tp111
a(F877.8857624844482
I83
tp112
a(F1088.6918825701357
I93
tp113
a(F627.3974847874986
I83
tp114
a(F910.6222679991981
I84
tp115
a(F1099.7165610132686
I93
tp116
a(F897.3465257535784
I84
tp117
a(F1078.8266187230045
I84
tp118
a(F879.1905277117653
I84
tp119
a(F934.0729039621779
I84
tp120
a(F906.4976368129022
I84
tp121
a(F1024.6972920321687
I84
tp122
a(F927.2710185490675
I84
tp123
a(F1011.2326862456264
I84
tp124
a(F924.5720120167217
I84
tp125
a(F902.2076189861623
I84
tp126
a(F927.7948247194676
I84
tp127
a(F928.453866189474
I84
tp128
a(F937.0870360476628
I84
tp129
a(F922.9846944696283
I73
tp130
a(F939.1916541108765
I73
tp131
a(F856.9854584703896
I32
tp132
a(F845.3636929166664
I32
tp133
a(F860.5985847312862
I32
tp134
a(F841.2229705384256
I32
tp135
a(F838.1140501490289
I32
tp136
a(F861.1204610953091
I32
tp137
a(F863.2717526884011
I32
tp138
a(F861.3015043531525
I32
tp139
a(F835.3771602466181
I32
tp140
a(F858.2088214322874
I32
tp141
a(F846.5471507578275
I32
tp142
a(F842.6620383523847
I32
tp143
a(F854.0966524028202
I32
tp144
a(F850.2084003758748
I32
tp145
a(F692.2660608607424
I32
tp146
a(F750.5849560523861
I32
tp147
a(F749.4356640875037
I32
tp148
a(F796.4852304809356
I32
tp149
a(F163.00658408020115
I26
tp150
a(F158.60971175665463
I26
tp151
a(F796.6930391062491
I32
tp152
a(F168.77886395740168
I18
tp153
a(F197.4277693441035
I18
tp154
a(F146.9185847980529
I25
tp155
a(F171.0251515983807
I26
tp156
a(F179.14544898503905
I18
tp157
a(F638.4700505752364
I32
tp158
a(F170.92303393705183
I18
tp159
a(F137.7900597698159
I25
tp160
a(F130.44895902767485
I18
tp161
a(F146.2245416250025
I18
tp162
a(F767.4908513139477
I32
tp163
a(F168.1860949070875
I26
tp164
a(F98.39235624953187
I18
tp165
a(F160.78049660942395
I22
tp166
a(F164.39523387910853
I14
tp167
a(F180.37203520090483
I9
tp168
a(F84.67851043458198
I14
tp169
a(F126.58807116052853
I11
tp170
a(F787.0660760538226
I32
tp171
a(F96.2205709757932
I11
tp172
a(F58.38969258313714
I14
tp173
a(F716.6837077015743
I32
tp174
a(F59.75317406934006
I11
tp175
a(F783.213673956082
I32
tp176
a(F37.008187164417116
I11
tp177
a(F775.5873008841685
I32
tp178
a(F47.50345605891228
I9
tp179
a(F47.45780818576208
I9
tp180
a(F750.8183610084711
I32
tp181
a(F37.08898760049356
I10
tp182
a(F735.4685252762706
I32
tp183
a(F737.3107931265537
I32
tp184
a(F9.650122309769182
I8
tp185
a(F12.000215108164126
I9
tp186
a(F22.13343395877384
I2
tp187
a(F26.768688593851692
I2
tp188
a(F73.10762324682304
I3
tp189
a(F69.74633318855666
I3
tp190
a(F900.0959202731162
I94
tp191
a(F919.273366576852
I94
tp192
a(F889.1449435984371
I94
tp193
a(F886.1934277801362
I94
tp194
a(F983.1442029988121
I94
tp195
a(F991.9049208945659
I94
tp196
a(F983.6102169917767
I94
tp197
a(F1052.6908048510847
I94
tp198
a(F876.3857924918387
I93
tp199
a(F871.8185227203753
I93
tp200
a(F1054.313282574503
I93
tp201
a(F650.4239090093777
I83
tp202
a(F883.4391204487562
I93
tp203
a(F1088.7539253260245
I93
tp204
a(F885.2328902976551
I93
tp205
a(F611.3007587715849
I83
tp206
a(F1103.042214336221
I93
tp207
a(F1083.0108006229782
I93
tp208
a(F1035.2240761795358
I93
tp209
a(F903.4447073891901
I83
tp210
a(F973.2262352017956
I84
tp211
a(F983.2385564072757
I84
tp212
a(F1001.6200528199116
I84
tp213
a(F731.087878901165
I32
tp214
a(F148.27206258823642
I29
tp215
a(F145.59396559042005
I29
tp216
a(F151.5696928797795
I30
tp217
a(F177.1519688870064
I26
tp218
a(F137.35627764178565
I23
tp219
a(F169.6387618138183
I18
tp220
a(F643.3050645548399
I32
tp221
a(F139.58710325750948
I25
tp222
a(F764.2573746650079
I32
tp223
a(F192.28365961797715
I14
tp224
a(F167.61372687774204
I26
tp225
a(F149.41868263630568
I14
tp226
a(F173.8118327689377
I14
tp227
a(F756.418242935931
I32
tp228
a(F161.6769625662064
I14
tp229
a(F653.0654260807079
I32
tp230
a(F777.961093081372
I32
tp231
a(F724.7844060242239
I32
tp232
a(F724.7019036119752
I32
tp233
a(F39.45883611636448
I2
tp234
a(F42.24059023908931
I2
tp235
a(F64.28772810503469
I2
tp236
a(F50.821298195168346
I3
tp237
a(F983.3106969314963
I94
tp238
a(F944.1465287484442
I94
tp239
a(F993.5655256498528
I94
tp240
a(F857.866218335794
I94
tp241
a(F1028.260167265888
I94
tp242
a(F848.7735020856578
I94
tp243
a(F1034.046217205431
I94
tp244
a(F635.1925274402345
I83
tp245
a(F626.1212119676608
I83
tp246
a(F610.5646911766164
I83
tp247
a(F1031.9355617123815
I93
tp248
a(F1047.6720935091341
I93
tp249
a(F629.4517559896774
I83
tp250
a(F593.2405972023978
I83
tp251
a(F898.8643262593383
I84
tp252
a(F1007.9669382366469
I93
tp253
a(F937.0708737958661
I84
tp254
a(F950.5373839225498
I84
tp255
a(F969.6860410529541
I84
tp256
a(F694.8731205091307
I61
tp257
a(F632.5586156611558
I61
tp258
a(F683.5990313671801
I32
tp259
a(F652.4890792423225
I32
tp260
a(F125.39681679043626
I29
tp261
a(F129.43001235929336
I29
tp262
a(F739.771468632831
I32
tp263
a(F134.31604727897442
I30
tp264
a(F168.42497926167164
I30
tp265
a(F773.5073153651214
I32
tp266
a(F206.1432112311262
I32
tp267
a(F744.6463700870103
I32
tp268
a(F625.0019060399297
I32
tp269
a(F144.2226923081326
I18
tp270
a(F122.09986434612408
I23
tp271
a(F134.56240625520232
I18
tp272
a(F745.8683065063582
I32
tp273
a(F118.71415391022039
I18
tp274
a(F649.5284035753584
I32
tp275
a(F750.3028190275696
I32
tp276
a(F176.50032324385134
I31
tp277
a(F668.8917684790341
I32
tp278
a(F766.8060505093391
I32
tp279
a(F690.3311015168844
I32
tp280
a(F114.37361516024652
I20
tp281
a(F707.9054049821314
I32
tp282
a(F751.1899373709667
I32
tp283
a(F61.08852727073679
I11
tp284
a(F48.02106741138138
I11
tp285
a(F39.3524284872386
I9
tp286
a(F34.54578364740116
I11
tp287
a(F730.5732729273482
I32
tp288
a(F15.103324660916432
I11
tp289
a(F4.311014037852544
I13
tp290
a(F17.865241255677827
I9
tp291
a(F67.19803789929878
I2
tp292
a(F71.93440104046816
I2
tp293
a(F74.78226937928264
I2
tp294
a(F76.36755247977435
I2
tp295
a(F63.172252813364175
I2
tp296
a(F62.418569709507956
I3
tp297
a(F62.56495744750891
I3
tp298
a(F78.96483245756242
I2
tp299
a(F64.14912373977297
I3
tp300
a(F78.03792267240682
I3
tp301
a(F66.19311658340725
I3
tp302
a(F76.18544097516737
I3
tp303
a(F68.71375189212313
I3
tp304
a(F708.8485869878205
I32
tp305
a(F878.1071392168128
I94
tp306
a(F971.6372077230026
I94
tp307
a(F1015.9480728214207
I94
tp308
a(F838.2025619121637
I93
tp309
a(F1039.421521342075
I93
tp310
a(F594.8063332083968
I83
tp311
a(F632.9714667086469
I83
tp312
a(F618.394769587845
I84
tp313
a(F600.2730631110649
I84
tp314
a(F577.1543984203583
I84
tp315
a(F944.4996723563635
I84
tp316
a(F597.8409775033704
I84
tp317
a(F987.1347182737505
I84
tp318
a(F614.6337475722379
I73
tp319
a(F677.3416555724581
I73
tp320
a(F690.962284364973
I73
tp321
a(F742.3770422531707
I32
tp322
a(F147.53006806686278
I40
tp323
a(F124.25441073608691
I40
tp324
a(F193.1015756830561
I32
tp325
a(F736.330445117993
I32
tp326
a(F202.23680965674308
I32
tp327
a(F125.2874333098052
I30
tp328
a(F723.7419740112704
I32
tp329
a(F617.6628300422234
I32
tp330
a(F150.63937344896996
I30
tp331
a(F720.4286884395392
I32
tp332
a(F618.4740241820256
I32
tp333
a(F130.75553623015668
I30
tp334
a(F98.77713424846407
I23
tp335
a(F635.5214535108789
I32
tp336
a(F188.31274058316959
I32
tp337
a(F622.9036076748099
I32
tp338
a(F651.6237341509903
I32
tp339
a(F605.6594863483593
I32
tp340
a(F749.0742005568565
I32
tp341
a(F741.1327964703044
I32
tp342
a(F754.3510140720149
I32
tp343
a(F733.0784363735531
I32
tp344
a(F755.6045185281632
I32
tp345
a(F700.8083299035525
I32
tp346
a(F755.5932071294563
I32
tp347
a(F729.1005332736313
I32
tp348
a(F754.3283535115706
I32
tp349
a(F726.5455303655651
I32
tp350
a(F755.666593743681
I32
tp351
a(F755.7350422073714
I32
tp352
a(F724.0012619235415
I32
tp353
a(F753.1104548071908
I32
tp354
a(F721.388285565882
I32
tp355
a(F713.5264055127137
I32
tp356
a(F713.3494528860841
I32
tp357
a(F157.99663431625294
I20
tp358
a(F676.2890758723016
I32
tp359
a(F753.3391433795895
I32
tp360
a(F712.3692346363566
I32
tp361
a(F752.1953576833537
I32
tp362
a(F713.8126078824145
I32
tp363
a(F51.84833983205845
I18
tp364
a(F682.6536523622188
I32
tp365
a(F723.3730014864234
I32
tp366
a(F719.4081818380141
I32
tp367
a(F739.2986431951437
I32
tp368
a(F731.3670415476624
I32
tp369
a(F727.4018024985779
I32
tp370
a(F735.3978601516925
I32
tp371
a(F77.99152540132535
I20
tp372
a(F13.734033160339907
I11
tp373
a(F69.65872646492983
I20
tp374
a(F38.94338222613521
I11
tp375
a(F52.10823179616062
I11
tp376
a(F76.44978911056135
I11
tp377
a(F70.06042138338444
I11
tp378
a(F84.67057733744593
I11
tp379
a(F914.4539584371307
I94
tp380
a(F822.1977400653699
I94
tp381
a(F999.765663533123
I94
tp382
a(F792.2107130782687
I94
tp383
a(F796.4669470383161
I94
tp384
a(F842.8535256238622
I93
tp385
a(F845.068042288849
I93
tp386
a(F1009.1891038538579
I93
tp387
a(F565.4940922124305
I83
tp388
a(F603.9392651851336
I83
tp389
a(F981.9139341963438
I93
tp390
a(F905.7045375957699
I93
tp391
a(F559.0181710379294
I84
tp392
a(F614.2235723207177
I84
tp393
a(F557.0276579607771
I73
tp394
a(F587.7352752668326
I61
tp395
a(F174.59261823581798
I40
tp396
a(F742.2190868334253
I32
tp397
a(F614.0643873182784
I32
tp398
a(F611.0713765865626
I32
tp399
a(F207.32382619846845
I32
tp400
a(F121.93574236796564
I30
tp401
a(F201.4539072963962
I32
tp402
a(F117.22945034412643
I30
tp403
a(F636.6236537918414
I32
tp404
a(F628.0797732277906
I32
tp405
a(F658.3038541499474
I32
tp406
a(F39.63824559228027
I23
tp407
a(F647.7758481112284
I32
tp408
a(F687.7648689494177
I32
tp409
a(F635.3842695692706
I32
tp410
a(F608.7550965945342
I32
tp411
a(F163.94411907217963
I31
tp412
a(F618.1300624927402
I32
tp413
a(F604.3019006667558
I32
tp414
a(F690.7404564070978
I32
tp415
a(F140.0952157136939
I31
tp416
a(F671.6709922697032
I32
tp417
a(F537.2884385464336
I32
tp418
a(F531.0999541336777
I32
tp419
a(F108.24583200937461
I20
tp420
a(F580.6239251144117
I32
tp421
a(F6.805065269516737
I15
tp422
a(F629.6518339390641
I32
tp423
a(F563.531043813614
I32
tp424
a(F605.6047860556645
I32
tp425
a(F19.650519904605254
I19
tp426
a(F86.98399150712049
I20
tp427
a(F50.116989778198764
I19
tp428
a(F80.18704694230145
I11
tp429
a(F68.22694441131515
I11
tp430
a(F620.4656505184997
I32
tp431
a(F870.1810690583533
I94
tp432
a(F812.4730009093083
I94
tp433
a(F946.7944881087703
I94
tp434
a(F781.0018128366265
I94
tp435
a(F803.8265033253113
I94
tp436
a(F999.4338759818162
I94
tp437
a(F768.468250517863
I93
tp438
a(F1020.7737965190329
I93
tp439
a(F556.373533500227
I83
tp440
a(F583.2880374686474
I83
tp441
a(F858.7747553978571
I93
tp442
a(F542.1645091601295
I84
tp443
a(F874.2432887760634
I93
tp444
a(F965.5448449358647
I93
tp445
a(F603.4989007816029
I84
tp446
a(F932.1191482499848
I93
tp447
a(F524.795917376132
I84
tp448
a(F546.4437965657321
I73
tp449
a(F666.4356994001135
I73
tp450
a(F565.9527222989868
I61
tp451
a(F603.0615058965577
I61
tp452
a(F165.94660335840814
I40
tp453
a(F132.4330291255598
I40
tp454
a(F199.31655951635446
I40
tp455
a(F107.14526651237709
I40
tp456
a(F103.97117870277695
I36
tp457
a(F187.35128573093778
I32
tp458
a(F730.082034580722
I32
tp459
a(F113.21645457608179
I30
tp460
a(F195.24191477919248
I32
tp461
a(F105.45110440753702
I30
tp462
a(F713.6107993654587
I32
tp463
a(F72.4362902444
I30
tp464
a(F613.5096493139143
I32
tp465
a(F695.0127923717147
I32
tp466
a(F661.8279570450612
I32
tp467
a(F634.9001251783417
I32
tp468
a(F594.0199946833559
I32
tp469
a(F170.43754650631067
I32
tp470
a(F669.4791154352241
I32
tp471
a(F664.9758517164806
I32
tp472
a(F632.5728952194253
I32
tp473
a(F641.5852827554256
I32
tp474
a(F600.797542687044
I32
tp475
a(F620.5433735364426
I32
tp476
a(F12.787341187377038
I18
tp477
a(F620.648291231367
I32
tp478
a(F135.19067075766975
I31
tp479
a(F604.0836069369097
I32
tp480
a(F163.25339132731995
I31
tp481
a(F156.73701757613486
I31
tp482
a(F646.7210960063225
I32
tp483
a(F564.7900202364359
I32
tp484
a(F549.8300573989238
I32
tp485
a(F607.8862616463749
I32
tp486
a(F556.9264616115477
I32
tp487
a(F133.05590574076442
I20
tp488
a(F583.6240291986827
I32
tp489
a(F105.2970523049013
I20
tp490
a(F87.25982794502828
I20
tp491
a(F624.1475726911668
I32
tp492
a(F914.1648926215165
I94
tp493
a(F808.8194867582273
I94
tp494
a(F780.6642273692488
I94
tp495
a(F748.2726267979235
I94
tp496
a(F1011.6593907474825
I93
tp497
a(F998.4839200299396
I93
tp498
a(F985.8865159046645
I93
tp499
a(F836.9962984377198
I93
tp500
a(F548.9735256024435
I83
tp501
a(F914.4412136544121
I93
tp502
a(F874.537319541481
I93
tp503
a(F520.7444831649957
I84
tp504
a(F630.2485941012307
I84
tp505
a(F531.0706243053505
I73
tp506
a(F641.9543705400587
I84
tp507
a(F645.809509362854
I73
tp508
a(F678.7596351750087
I73
tp509
a(F124.74012479870218
I50
tp510
a(F145.85639650852045
I47
tp511
a(F161.5805981339389
I47
tp512
a(F181.52573416593265
I47
tp513
a(F703.8567971384139
I73
tp514
a(F593.3239723660654
I61
tp515
a(F198.538802914094
I32
tp516
a(F605.0550970848669
I32
tp517
a(F617.3206454531102
I32
tp518
a(F652.3216632084595
I32
tp519
a(F625.3921807737182
I32
tp520
a(F625.7851525934625
I32
tp521
a(F630.6343120802295
I32
tp522
a(F679.2924274064918
I32
tp523
a(F181.79145017276187
I32
tp524
a(F622.1553368867139
I32
tp525
a(F618.1384523587005
I32
tp526
a(F624.8007225104716
I32
tp527
a(F628.7726154875985
I32
tp528
a(F615.5033952956028
I32
tp529
a(F631.4360302571489
I32
tp530
a(F632.7094001400701
I32
tp531
a(F612.751531610583
I32
tp532
a(F635.4017800039625
I32
tp533
a(F636.7174779687647
I32
tp534
a(F612.7976397630097
I32
tp535
a(F636.7610225751137
I32
tp536
a(F638.1267153508066
I32
tp537
a(F636.9234695871273
I32
tp538
a(F609.0738390664267
I32
tp539
a(F13.004461696237318
I25
tp540
a(F637.1863246734854
I32
tp541
a(F609.3828429182391
I32
tp542
a(F636.0594263684833
I32
tp543
a(F142.3462836400636
I32
tp544
a(F630.9421131348838
I32
tp545
a(F626.9567625914187
I32
tp546
a(F623.0443885186837
I32
tp547
a(F616.5522396295419
I32
tp548
a(F620.6148140246953
I32
tp549
a(F168.1132153048752
I32
tp550
a(F184.73945936097994
I31
tp551
a(F17.945957091653973
I28
tp552
a(F156.54638234380903
I31
tp553
a(F31.494495145679647
I20
tp554
a(F114.43704219622737
I31
tp555
a(F162.22806644077838
I31
tp556
a(F73.84290473442718
I20
tp557
a(F154.81163269577166
I20
tp558
a(F175.62503159650433
I20
tp559
a(F146.6117927713922
I20
tp560
a(F174.67186501940756
I20
tp561
a(F148.56708376731223
I20
tp562
a(F175.4920608765423
I20
tp563
a(F162.65539316534034
I11
tp564
a(F772.0512209041258
I94
tp565
a(F901.4566687103846
I94
tp566
a(F754.3162056086588
I94
tp567
a(F918.3516239587852
I94
tp568
a(F929.2009440151043
I94
tp569
a(F960.9440130364267
I94
tp570
a(F987.079213952779
I94
tp571
a(F986.645892318326
I94
tp572
a(F965.837841672092
I94
tp573
a(F713.202845317931
I94
tp574
a(F980.376960720079
I94
tp575
a(F752.9297508197296
I94
tp576
a(F750.786827120073
I93
tp577
a(F986.8333556549362
I93
tp578
a(F784.0267361677736
I93
tp579
a(F946.5565832124261
I93
tp580
a(F796.6101555888529
I93
tp581
a(F586.9645580931439
I83
tp582
a(F840.2948599025115
I93
tp583
a(F565.8625301362381
I83
tp584
a(F564.443434523561
I84
tp585
a(F599.9890049192115
I84
tp586
a(F518.4450813255635
I84
tp587
a(F502.5774688004706
I84
tp588
a(F626.2580623706873
I84
tp589
a(F494.20984740219103
I84
tp590
a(F649.03778389992
I84
tp591
a(F656.6351552729795
I73
tp592
a(F527.9577587562392
I61
tp593
a(F109.43966335501216
I47
tp594
a(F507.86668488792156
I61
tp595
a(F171.4379722358214
I50
tp596
a(F90.7195265572553
I54
tp597
a(F200.00198789241276
I47
tp598
a(F96.68062609390518
I37
tp599
a(F718.4980504548583
I61
tp600
a(F579.7666326394005
I61
tp601
a(F86.28679375351379
I37
tp602
a(F729.9151057734432
I32
tp603
a(F72.9073372388674
I37
tp604
a(F57.68392664991457
I29
tp605
a(F707.5513693823349
I32
tp606
a(F44.40980295966743
I30
tp607
a(F5.437677392120439
I22
tp608
a(F149.35609060118622
I32
tp609
a(F89.90685234023861
I31
tp610
a(F76.8593429436395
I28
tp611
a(F52.843423390796346
I20
tp612
a(F896.9202832954314
I263
tp613
a(F893.5625822172485
I263
tp614
a(F891.9188060409424
I263
tp615
a(F908.3884418114297
I263
tp616
a(F891.628864459085
I263
tp617
a(F910.4317634560244
I263
tp618
a(F913.3516121419458
I263
tp619
a(F893.5824486193746
I263
tp620
a(F914.3262805379114
I263
tp621
a(F895.6662465526131
I263
tp622
a(F916.4087417606515
I263
tp623
a(F896.6837823255455
I263
tp624
a(F917.4150433993005
I263
tp625
a(F919.5271484862175
I263
tp626
a(F909.7517791209019
I263
tp627
a(F924.8767897418522
I263
tp628
a(F912.7447993575704
I263
tp629
a(F927.1604349077302
I263
tp630
a(F928.2929774259263
I263
tp631
a(F917.1766002483896
I263
tp632
a(F928.2786305001287
I263
tp633
a(F923.1849679368687
I263
tp634
a(F926.8784365027099
I263
tp635
a(F930.8749080309425
I263
tp636
a(F765.1593969281273
I94
tp637
a(F741.1989912598468
I94
tp638
a(F809.4807525962983
I94
tp639
a(F864.8844145509755
I94
tp640
a(F918.1847580640875
I263
tp641
a(F729.2215449093175
I94
tp642
a(F954.4706825525822
I263
tp643
a(F828.8980753465831
I94
tp644
a(F720.0391942560058
I94
tp645
a(F936.2483918328468
I94
tp646
a(F950.5292714011921
I94
tp647
a(F728.949984330713
I94
tp648
a(F952.8087147075092
I94
tp649
a(F694.1371047179784
I94
tp650
a(F692.3832146809349
I94
tp651
a(F959.5386045365117
I94
tp652
a(F948.4935342136666
I94
tp653
a(F929.2886870476381
I93
tp654
a(F900.5467301807741
I93
tp655
a(F863.4395898754888
I93
tp656
a(F494.6624540683783
I84
tp657
a(F584.320184392366
I84
tp658
a(F137.10422835978926
I50
tp659
a(F94.38127994666817
I53
tp660
a(F92.48500573328646
I54
tp661
a(F155.17949260872757
I61
tp662
a(F83.9059542204906
I45
tp663
a(F554.3423007400162
I61
tp664
a(F204.44504715633573
I40
tp665
a(F727.7799816793995
I32
tp666
a(F188.76353413498686
I58
tp667
a(F38.32116033729999
I41
tp668
a(F650.2515809385595
I32
tp669
a(F15.478886821095466
I29
tp670
a(F160.75346197958268
I32
tp671
a(F131.330224992313
I32
tp672
a(F104.04207087002823
I32
tp673
a(F80.3566884624426
I31
tp674
a(F71.98953864339896
I31
tp675
a(F887.5871800025484
I263
tp676
a(F899.8437638326844
I263
tp677
a(F887.7262407495081
I263
tp678
a(F919.490866156936
I263
tp679
a(F888.0466333948742
I263
tp680
a(F775.3458235767577
I263
tp681
a(F748.1908888208117
I263
tp682
a(F871.5102464224385
I263
tp683
a(F817.227217686069
I263
tp684
a(F719.646290694754
I94
tp685
a(F737.3405098193699
I94
tp686
a(F720.4305970848375
I94
tp687
a(F941.086979625575
I263
tp688
a(F680.8974162154332
I94
tp689
a(F933.6919423996133
I94
tp690
a(F930.688336346841
I94
tp691
a(F937.509216076089
I94
tp692
a(F938.1679385222418
I94
tp693
a(F694.424864757904
I94
tp694
a(F722.3793068174707
I93
tp695
a(F931.263037137262
I93
tp696
a(F906.1524323305047
I93
tp697
a(F876.826372647229
I93
tp698
a(F769.1292860436619
I93
tp699
a(F811.4011136464751
I93
tp700
a(F528.800593691338
I84
tp701
a(F570.9121698424842
I84
tp702
a(F594.9818503325354
I84
tp703
a(F123.87144680651122
I53
tp704
a(F619.8332953851851
I84
tp705
a(F92.4648145376444
I54
tp706
a(F669.0144081877536
I84
tp707
a(F171.60677007794288
I57
tp708
a(F687.510091539002
I73
tp709
a(F528.0737483926882
I61
tp710
a(F66.89683855157578
I45
tp711
a(F55.10323455366408
I45
tp712
a(F703.740739610999
I69
tp713
a(F191.39404984147453
I32
tp714
a(F592.6768994409188
I61
tp715
a(F627.299409247785
I32
tp716
a(F19.30505470860253
I36
tp717
a(F728.9807584104299
I32
tp718
a(F724.8942098303845
I32
tp719
a(F171.74396315904954
I38
tp720
a(F18.587865646577697
I29
tp721
a(F18.886355153227658
I32
tp722
a(F156.4022030582801
I32
tp723
a(F19.517684570393065
I32
tp724
a(F58.46601681471944
I35
tp725
a(F877.8862240809854
I263
tp726
a(F707.2699995375727
I174
tp727
a(F862.9770733298755
I263
tp728
a(F811.9762801046646
I263
tp729
a(F829.1967955490704
I263
tp730
a(F899.5860742839105
I263
tp731
a(F691.7077729366035
I174
tp732
a(F903.5618467052434
I263
tp733
a(F684.0509181777345
I94
tp734
a(F935.6114961885779
I263
tp735
a(F671.0512991683923
I94
tp736
a(F648.6556206806551
I94
tp737
a(F907.2918028452756
I94
tp738
a(F686.8603902385903
I94
tp739
a(F897.7352454328493
I94
tp740
a(F887.2165905658201
I93
tp741
a(F729.4076685097831
I93
tp742
a(F838.3913670582566
I93
tp743
a(F555.886930537551
I84
tp744
a(F469.149440213851
I84
tp745
a(F567.9713468274467
I84
tp746
a(F468.7671684704834
I73
tp747
a(F137.88462319858667
I65
tp748
a(F119.88885570182036
I64
tp749
a(F660.9498257651626
I84
tp750
a(F103.49185761579709
I64
tp751
a(F150.40180866912888
I65
tp752
a(F73.7398234692096
I54
tp753
a(F451.63869284625076
I73
tp754
a(F70.29614516559853
I54
tp755
a(F40.583256828392784
I54
tp756
a(F159.25140557720343
I61
tp757
a(F682.0508374463783
I73
tp758
a(F172.85261255621757
I57
tp759
a(F33.1410110188079
I45
tp760
a(F188.18426886989246
I50
tp761
a(F579.9613044610785
I61
tp762
a(F691.4442976952994
I61
tp763
a(F187.06940969686895
I38
tp764
a(F723.4507268100477
I32
tp765
a(F680.1289859759358
I32
tp766
a(F704.5607768731626
I32
tp767
a(F746.7979106806977
I32
tp768
a(F17.952032349694132
I42
tp769
a(F139.36783611767825
I35
tp770
a(F108.01792764404658
I32
tp771
a(F18.557415173740466
I35
tp772
a(F52.370994853679214
I35
tp773
a(F80.51004854023518
I32
tp774
a(F668.4265522332059
I263
tp775
a(F657.6522938843269
I263
tp776
a(F735.6566399716323
I263
tp777
a(F755.3881048937375
I263
tp778
a(F650.5534294636482
I174
tp779
a(F708.8949299418634
I263
tp780
a(F685.3066364330331
I263
tp781
a(F656.8873514643093
I174
tp782
a(F790.8876646735965
I263
tp783
a(F846.1271956852624
I263
tp784
a(F822.3549184749239
I263
tp785
a(F865.0588504714322
I263
tp786
a(F881.4721588357949
I263
tp787
a(F641.145723737892
I94
tp788
a(F896.6336887968296
I263
tp789
a(F905.2970790375012
I94
tp790
a(F640.4845606029604
I94
tp791
a(F901.4180278492473
I94
tp792
a(F900.6000338470232
I94
tp793
a(F661.0962187516916
I94
tp794
a(F702.1478079046132
I93
tp795
a(F836.5224488622532
I93
tp796
a(F782.3386800090119
I93
tp797
a(F467.04854479787343
I84
tp798
a(F483.24995836261553
I84
tp799
a(F444.8828190036584
I84
tp800
a(F435.7992713659448
I84
tp801
a(F515.8776025140336
I84
tp802
a(F431.44313853637146
I84
tp803
a(F545.2897032510114
I84
tp804
a(F566.909148788792
I84
tp805
a(F427.4862415221503
I84
tp806
a(F598.1710929971977
I84
tp807
a(F84.15417755727061
I64
tp808
a(F622.0888044209065
I84
tp809
a(F437.66710621311853
I84
tp810
a(F57.91063249067393
I52
tp811
a(F681.9648542839216
I84
tp812
a(F169.85231206837253
I61
tp813
a(F481.8368694563404
I73
tp814
a(F498.4616357300846
I73
tp815
a(F684.0779660918347
I73
tp816
a(F539.4484843861993
I69
tp817
a(F692.6421698784434
I69
tp818
a(F661.3501518666961
I61
tp819
a(F628.1619317167045
I32
tp820
a(F713.0415352578375
I69
tp821
a(F711.0128834345451
I32
tp822
a(F195.41796977563004
I38
tp823
a(F161.7243305946355
I35
tp824
a(F52.28562605787061
I35
tp825
a(F124.6549419929909
I35
tp826
a(F677.491440700709
I263
tp827
a(F671.8961097393468
I263
tp828
a(F680.5425422928405
I263
tp829
a(F689.468604781152
I263
tp830
a(F683.8143507662144
I263
tp831
a(F699.5907706214459
I263
tp832
a(F702.3922432113354
I263
tp833
a(F668.9325962953238
I263
tp834
a(F713.8785237080687
I263
tp835
a(F666.9651131766253
I263
tp836
a(F730.4012390101838
I263
tp837
a(F726.7234436804063
I263
tp838
a(F666.3397252321091
I263
tp839
a(F740.1546305703347
I263
tp840
a(F744.1874110561147
I263
tp841
a(F663.6170836915711
I263
tp842
a(F638.5624694008454
I263
tp843
a(F636.3861094169705
I263
tp844
a(F634.0074943546167
I263
tp845
a(F654.9243642516308
I263
tp846
a(F645.0808713233603
I263
tp847
a(F631.133382704046
I263
tp848
a(F628.9993087877377
I263
tp849
a(F753.962227661049
I263
tp850
a(F630.4408154772433
I263
tp851
a(F630.4280352340631
I174
tp852
a(F758.8431785228897
I263
tp853
a(F768.2964394602552
I263
tp854
a(F775.8580396276553
I263
tp855
a(F779.1610396281392
I263
tp856
a(F628.9251268959456
I174
tp857
a(F784.5454908338697
I263
tp858
a(F790.4127032821647
I263
tp859
a(F793.5602741137259
I263
tp860
a(F628.138571663084
I174
tp861
a(F803.9102960199406
I263
tp862
a(F807.2756850015503
I263
tp863
a(F629.1443435824945
I174
tp864
a(F810.7786276781175
I263
tp865
a(F815.8707104895411
I263
tp866
a(F819.249598417819
I263
tp867
a(F823.5446338492039
I263
tp868
a(F830.8993018259604
I263
tp869
a(F629.2246755453249
I174
tp870
a(F629.1768739982426
I94
tp871
a(F843.4235415301766
I263
tp872
a(F846.5493864121977
I263
tp873
a(F626.1448734357328
I94
tp874
a(F851.7329481964707
I263
tp875
a(F854.5453330630023
I263
tp876
a(F621.5336930029215
I94
tp877
a(F619.3263548431845
I94
tp878
a(F861.6784226122015
I263
tp879
a(F863.7163817286336
I263
tp880
a(F616.2257878860581
I94
tp881
a(F866.2600168999212
I263
tp882
a(F869.389297083563
I263
tp883
a(F611.9102212709473
I94
tp884
a(F873.7824923399173
I263
tp885
a(F611.2526559197421
I94
tp886
a(F609.9239000571617
I94
tp887
a(F879.9002801382359
I94
tp888
a(F611.2187817900711
I94
tp889
a(F879.9650993473846
I94
tp890
a(F613.0501226179225
I94
tp891
a(F881.5514090223758
I94
tp892
a(F616.2266458835894
I94
tp893
a(F881.9483179426387
I94
tp894
a(F881.558027721295
I94
tp895
a(F882.3868922225672
I94
tp896
a(F623.9300388195267
I94
tp897
a(F882.0357550438605
I94
tp898
a(F882.6334647243701
I94
tp899
a(F399.8866436572399
I94
tp900
a(F629.4855123618433
I94
tp901
a(F389.2898096571996
I94
tp902
a(F379.7379947698936
I94
tp903
a(F374.6886288572669
I94
tp904
a(F365.79909877443737
I94
tp905
a(F419.71069000187475
I94
tp906
a(F357.7587813504179
I94
tp907
a(F633.9938402456702
I94
tp908
a(F882.8744738103202
I94
tp909
a(F423.60430949436824
I94
tp910
a(F345.67186748321905
I94
tp911
a(F426.4191637600181
I94
tp912
a(F884.2123459542113
I94
tp913
a(F638.5538969467259
I94
tp914
a(F428.4940435056942
I94
tp915
a(F339.9333886222278
I94
tp916
a(F638.806803203712
I94
tp917
a(F882.3712148483418
I94
tp918
a(F430.24093784917324
I94
tp919
a(F335.7928152892193
I94
tp920
a(F333.8586366852536
I94
tp921
a(F429.7231941729472
I94
tp922
a(F333.36721437379845
I94
tp923
a(F645.9770998571026
I94
tp924
a(F428.0259298288479
I94
tp925
a(F881.493902724991
I94
tp926
a(F438.81691229014837
I94
tp927
a(F435.10292682060845
I94
tp928
a(F648.8673906148667
I94
tp929
a(F427.56922082330993
I94
tp930
a(F430.44768493952097
I94
tp931
a(F651.3296171556998
I94
tp932
a(F443.9453120052653
I94
tp933
a(F653.0840994498338
I94
tp934
a(F879.7853581983452
I94
tp935
a(F655.6022206001592
I94
tp936
a(F445.5115477419776
I94
tp937
a(F657.4222251626802
I94
tp938
a(F327.14381848945237
I94
tp939
a(F879.5601375550128
I94
tp940
a(F323.5522934541685
I94
tp941
a(F659.1476838401693
I94
tp942
a(F661.0014986078698
I94
tp943
a(F321.87922463456084
I94
tp944
a(F449.0525505137886
I94
tp945
a(F662.1494028632741
I94
tp946
a(F449.5935026045089
I94
tp947
a(F323.24434063620686
I94
tp948
a(F666.5594344826648
I94
tp949
a(F449.4252516205565
I94
tp950
a(F669.0496178037515
I94
tp951
a(F319.62686442997267
I94
tp952
a(F450.0453108781963
I94
tp953
a(F670.972793936793
I94
tp954
a(F319.6028303775424
I94
tp955
a(F874.5454701199623
I94
tp956
a(F873.274652713448
I94
tp957
a(F450.06714534595807
I94
tp958
a(F676.2530619227241
I94
tp959
a(F873.2951704528032
I94
tp960
a(F450.6816974749903
I94
tp961
a(F872.6408802957526
I94
tp962
a(F678.2579450694623
I94
tp963
a(F317.0341886804599
I93
tp964
a(F450.1857662346483
I93
tp965
a(F871.4081402556399
I94
tp966
a(F680.2527627856077
I94
tp967
a(F300.3977911841369
I93
tp968
a(F296.35478879184757
I93
tp969
a(F314.5841928455361
I93
tp970
a(F869.4882298353442
I94
tp971
a(F311.47801104971774
I93
tp972
a(F307.3773903556427
I93
tp973
a(F450.6703109723735
I93
tp974
a(F291.6426485854227
I93
tp975
a(F864.4799837360132
I93
tp976
a(F288.2296206253707
I93
tp977
a(F449.83030923490264
I93
tp978
a(F690.2096756403
I93
tp979
a(F450.122705930111
I93
tp980
a(F858.1447093435218
I93
tp981
a(F695.1128756541758
I93
tp982
a(F696.9131950180578
I93
tp983
a(F285.74684866565707
I83
tp984
a(F449.47818030491504
I93
tp985
a(F850.6506573663836
I93
tp986
a(F701.3282236541323
I93
tp987
a(F281.0103454649916
I83
tp988
a(F844.5923396857921
I93
tp989
a(F446.61361869552115
I93
tp990
a(F842.5633854267943
I93
tp991
a(F278.10199453065326
I83
tp992
a(F710.1725023132374
I93
tp993
a(F443.9082861491331
I93
tp994
a(F275.4955665089494
I83
tp995
a(F835.876258623156
I93
tp996
a(F271.0574547087802
I83
tp997
a(F716.6316207270376
I93
tp998
a(F829.3292437568498
I93
tp999
a(F268.4071479933563
I83
tp1000
a(F442.5213114961904
I93
tp1001
a(F824.684470051377
I93
tp1002
a(F820.0380147202186
I93
tp1003
a(F726.3592533805074
I93
tp1004
a(F262.2114421265536
I83
tp1005
a(F817.4648815798561
I93
tp1006
a(F731.5501809310266
I93
tp1007
a(F441.78742588027603
I93
tp1008
a(F734.1920346761199
I93
tp1009
a(F259.59188748948594
I83
tp1010
a(F737.4288946290653
I93
tp1011
a(F749.2073095414096
I93
tp1012
a(F442.4416990161623
I93
tp1013
a(F798.3631203793454
I93
tp1014
a(F791.8692413270867
I93
tp1015
a(F785.2789277877563
I93
tp1016
a(F795.11906725466
I93
tp1017
a(F256.39085834021785
I83
tp1018
a(F443.7044718186426
I93
tp1019
a(F768.8812214771652
I93
tp1020
a(F765.638333056712
I93
tp1021
a(F322.5191169844567
I83
tp1022
a(F253.75052766290446
I83
tp1023
a(F448.31075783921153
I93
tp1024
a(F326.191524257736
I83
tp1025
a(F329.2197351453926
I83
tp1026
a(F394.7584472474305
I83
tp1027
a(F254.82064890806532
I83
tp1028
a(F453.5200863726855
I93
tp1029
a(F319.3476353079446
I83
tp1030
a(F390.976278596544
I83
tp1031
a(F254.83187441286856
I83
tp1032
a(F338.47874434719785
I83
tp1033
a(F396.03026106401165
I83
tp1034
a(F354.05258778052587
I83
tp1035
a(F254.3650039885341
I83
tp1036
a(F358.3420330658454
I84
tp1037
a(F388.43108605637804
I84
tp1038
a(F318.8301731162228
I84
tp1039
a(F251.99929168697517
I84
tp1040
a(F395.97950147168405
I84
tp1041
a(F344.68165354736635
I84
tp1042
a(F465.4199097239912
I93
tp1043
a(F382.72107531327305
I84
tp1044
a(F379.59991560530233
I84
tp1045
a(F366.4286823319821
I84
tp1046
a(F314.4606691902068
I84
tp1047
a(F370.1797393871342
I84
tp1048
a(F311.43477134276543
I84
tp1049
a(F305.3235267592829
I84
tp1050
a(F468.5964718272514
I84
tp1051
a(F301.03909480624515
I84
tp1052
a(F250.18373707085198
I84
tp1053
a(F475.71888167713786
I84
tp1054
a(F293.24899090047467
I84
tp1055
a(F287.8467951416527
I84
tp1056
a(F485.94824203504226
I84
tp1057
a(F493.102586273202
I84
tp1058
a(F489.23726255194487
I84
tp1059
a(F283.65022583939043
I84
tp1060
a(F251.32787124580514
I84
tp1061
a(F496.9794286609323
I84
tp1062
a(F298.70189606386276
I84
tp1063
a(F279.4597510013981
I84
tp1064
a(F506.6689069395627
I84
tp1065
a(F291.49421026725594
I84
tp1066
a(F276.5570679110419
I84
tp1067
a(F278.3507554017531
I84
tp1068
a(F253.7299935930448
I84
tp1069
a(F400.4721160674644
I84
tp1070
a(F513.785989307539
I84
tp1071
a(F296.35617568852274
I84
tp1072
a(F293.39745319162404
I84
tp1073
a(F259.64202490993483
I84
tp1074
a(F272.55493576332094
I84
tp1075
a(F262.60616799065707
I84
tp1076
a(F266.7894113515763
I84
tp1077
a(F522.9375892885664
I84
tp1078
a(F530.2948373349931
I84
tp1079
a(F534.8388793887028
I84
tp1080
a(F538.2257865544411
I84
tp1081
a(F408.19484909407834
I84
tp1082
a(F546.1525678227022
I84
tp1083
a(F95.4276367686819
I64
tp1084
a(F548.7823903160049
I84
tp1085
a(F409.0944491135912
I84
tp1086
a(F553.420721481159
I84
tp1087
a(F110.86486625223777
I65
tp1088
a(F564.6853560850927
I84
tp1089
a(F406.3929160053497
I84
tp1090
a(F568.6205814757003
I84
tp1091
a(F572.0123928896395
I84
tp1092
a(F575.9513789723459
I84
tp1093
a(F125.90886316062802
I65
tp1094
a(F407.1664555182944
I84
tp1095
a(F76.6536155371803
I64
tp1096
a(F590.6346887873565
I84
tp1097
a(F599.3738991143614
I84
tp1098
a(F606.6497892143074
I84
tp1099
a(F63.95441760887907
I64
tp1100
a(F615.2976339590075
I84
tp1101
a(F618.6871692816682
I84
tp1102
a(F411.0662098311512
I84
tp1103
a(F627.4656993834303
I84
tp1104
a(F630.2842220294995
I84
tp1105
a(F69.02256796955002
I64
tp1106
a(F413.69430824092484
I84
tp1107
a(F632.0109218261601
I84
tp1108
a(F634.2280963286998
I84
tp1109
a(F141.0869237419229
I65
tp1110
a(F637.655953792433
I84
tp1111
a(F419.46931971091425
I84
tp1112
a(F640.5816889349377
I84
tp1113
a(F58.96812903829552
I52
tp1114
a(F648.0658623897245
I84
tp1115
a(F422.2526058661173
I84
tp1116
a(F53.52810419048464
I52
tp1117
a(F152.07453145031315
I65
tp1118
a(F426.0685495491745
I84
tp1119
a(F657.0936525083295
I84
tp1120
a(F659.9668643646675
I84
tp1121
a(F428.40252976106353
I73
tp1122
a(F662.3280801425534
I84
tp1123
a(F167.1784728757352
I70
tp1124
a(F662.9450302546444
I84
tp1125
a(F440.4078514255465
I73
tp1126
a(F667.852325683845
I84
tp1127
a(F669.1307806527421
I84
tp1128
a(F447.37506003572656
I73
tp1129
a(F670.9958127926885
I84
tp1130
a(F451.6691137170771
I73
tp1131
a(F456.9030402527605
I73
tp1132
a(F41.20808348023778
I52
tp1133
a(F670.6064475320475
I84
tp1134
a(F461.6151569687801
I73
tp1135
a(F669.9402400060258
I84
tp1136
a(F466.0303598514924
I73
tp1137
a(F667.7011246349202
I84
tp1138
a(F27.578506151672485
I54
tp1139
a(F662.1600756136893
I84
tp1140
a(F658.9813635189698
I84
tp1141
a(F484.52993625262746
I73
tp1142
a(F470.27112356163724
I73
tp1143
a(F654.7243300837023
I84
tp1144
a(F489.95435051841787
I73
tp1145
a(F481.511582184353
I73
tp1146
a(F474.4345029863708
I73
tp1147
a(F174.87796999639764
I61
tp1148
a(F491.12259925639955
I73
tp1149
a(F497.74328503483224
I73
tp1150
a(F497.15594761016933
I69
tp1151
a(F657.1398083418419
I84
tp1152
a(F503.2300813387107
I69
tp1153
a(F660.2773272749267
I84
tp1154
a(F515.0972864944467
I69
tp1155
a(F665.1664773365853
I73
tp1156
a(F25.487250070388086
I55
tp1157
a(F518.0621278304036
I69
tp1158
a(F527.9083856976926
I69
tp1159
a(F529.4482731761342
I69
tp1160
a(F673.4126920586506
I73
tp1161
a(F535.752575086666
I69
tp1162
a(F539.1666721341049
I69
tp1163
a(F675.2992154921861
I73
tp1164
a(F549.8764411565267
I69
tp1165
a(F677.3101377450107
I69
tp1166
a(F552.8104494453715
I69
tp1167
a(F556.2399403604217
I69
tp1168
a(F176.15059999070053
I57
tp1169
a(F676.452480513739
I69
tp1170
a(F559.1816902842868
I69
tp1171
a(F676.3910191451135
I69
tp1172
a(F13.775327780599902
I40
tp1173
a(F674.8889621857538
I69
tp1174
a(F669.7868947799494
I69
tp1175
a(F576.2821395706827
I69
tp1176
a(F666.7707068229618
I69
tp1177
a(F179.33621141576694
I58
tp1178
a(F662.5806127581511
I69
tp1179
a(F659.4674560500998
I69
tp1180
a(F645.7810148062298
I69
tp1181
a(F639.1353921487935
I69
tp1182
a(F634.6668533041308
I69
tp1183
a(F629.8727096580654
I69
tp1184
a(F602.6971824043882
I70
tp1185
a(F622.9419405160835
I69
tp1186
a(F618.4762025859944
I69
tp1187
a(F610.6627816062808
I70
tp1188
a(F615.2725075357276
I70
tp1189
a(F606.8188198037873
I70
tp1190
a(F8.627867385253738
I40
tp1191
a(F198.65861190004023
I38
tp1192
a(F25.842285936331532
I42
tp1193
a(F49.60574196392013
I42
tp1194
a(F185.78620915994819
I35
tp1195
a(F161.760151977255
I35
tp1196
a(F69.53011847701349
I35
tp1197
a(F73.1051739817398
I35
tp1198
a(F136.09074601392447
I35
tp1199
a(F112.48202934741457
I35
tp1200
a(F91.77679545958405
I35
tp1201
a(F121.0733525676124
I77
tp1202
a(F114.4355793534571
I77
tp1203
a(F125.43455090577706
I77
tp1204
a(F126.71195799459112
I77
tp1205
a(F129.1418811116116
I77
tp1206
a(F130.60435628928877
I77
tp1207
a(F98.1495644056729
I76
tp1208
a(F133.2036149658187
I77
tp1209
a(F95.79279091124714
I76
tp1210
a(F134.76588970029238
I77
tp1211
a(F137.4006542015373
I73
tp1212
a(F138.65778151388375
I73
tp1213
a(F84.32857009713042
I65
tp1214
a(F141.05244890807512
I73
tp1215
a(F81.64489008811054
I64
tp1216
a(F142.50485172900832
I73
tp1217
a(F78.90084956718651
I64
tp1218
a(F145.40675835055143
I73
tp1219
a(F75.74537736622466
I64
tp1220
a(F73.21760838265563
I64
tp1221
a(F70.21833801799008
I64
tp1222
a(F67.95639027297473
I64
tp1223
a(F65.18535299819777
I64
tp1224
a(F63.24387248124355
I64
tp1225
a(F154.06001482004316
I73
tp1226
a(F60.700925860746
I64
tp1227
a(F59.154539650612826
I64
tp1228
a(F155.9026165700962
I73
tp1229
a(F56.93727462751195
I64
tp1230
a(F56.789940817091164
I64
tp1231
a(F157.8956704115709
I73
tp1232
a(F54.54624586814672
I59
tp1233
a(F158.82252701054614
I73
tp1234
a(F53.38552766716604
I59
tp1235
a(F54.33399057957875
I59
tp1236
a(F55.238270395639226
I59
tp1237
a(F57.8397310185806
I59
tp1238
a(F59.502255993380246
I59
tp1239
a(F63.45617729032971
I59
tp1240
a(F55.57884675953324
I59
tp1241
a(F60.61567585303063
I59
tp1242
a(F65.77175922157537
I59
tp1243
a(F73.86856191282568
I59
tp1244
a(F158.6421981630854
I73
tp1245
a(F76.23323635978527
I59
tp1246
a(F77.32493150519412
I59
tp1247
a(F76.01864566198849
I59
tp1248
a(F156.25000740788826
I73
tp1249
a(F73.12120414131269
I59
tp1250
a(F154.00164019584471
I73
tp1251
a(F173.96234734663682
I73
tp1252
a(F170.41451317992818
I73
tp1253
a(F63.05826872881561
I59
tp1254
a(F154.17071277848652
I65
tp1255
a(F160.15517941781314
I73
tp1256
a(F156.53404008985873
I65
tp1257
a(F179.015516062185
I73
tp1258
a(F58.15910054568381
I59
tp1259
a(F55.24535997801887
I59
tp1260
a(F180.61257499495056
I73
tp1261
a(F46.420574084341794
I52
tp1262
a(F181.79463727157273
I65
tp1263
a(F42.67930538697485
I52
tp1264
a(F180.74505452328862
I65
tp1265
a(F180.42805836276094
I70
tp1266
a(F32.60948604799935
I52
tp1267
a(F29.15841266451692
I52
tp1268
a(F26.091039200259775
I52
tp1269
a(F183.59005329416914
I70
tp1270
a(F20.396198777093243
I52
tp1271
a(F18.955206265158395
I52
tp1272
a(F17.309354014194806
I52
tp1273
a(F16.75830270625083
I52
tp1274
a(F183.93643559815945
I70
tp1275
a(F15.271477575445024
I54
tp1276
a(F11.565086914386807
I54
tp1277
a(F10.59004212386069
I54
tp1278
a(F185.03480066607477
I61
tp1279
a(F9.203151884431907
I54
tp1280
a(F13.634038040748047
I54
tp1281
a(F185.23315785661603
I61
tp1282
a(F15.819510956870333
I54
tp1283
a(F184.0842994444583
I61
tp1284
a(F18.863867599137308
I50
tp1285
a(F184.40106278966235
I61
tp1286
a(F14.676892840778297
I50
tp1287
a(F183.53004099695264
I61
tp1288
a(F9.961340712864951
I50
tp1289
a(F184.02173405427718
I61
tp1290
a(F1.593961394261298
I50
tp1291
a(F2.4311264821355327
I50
tp1292
a(F182.14030815480342
I57
tp1293
a(F179.6979138091939
I57
tp1294
a(F177.69058158384593
I57
tp1295
a(F175.318542914374
I57
tp1296
a(F177.23589580656778
I57
tp1297
a(F176.4832501559828
I57
tp1298
a(F11.38164923670326
I58
tp1299
a(F14.22794838855377
I58
tp1300
a(F178.64610358407592
I58
tp1301
a(F22.295918675955658
I58
tp1302
a(F180.47640524867114
I58
tp1303
a(F22.9104850770942
I48
tp1304
a(F181.0011773759568
I58
tp1305
a(F182.8950584385075
I58
tp1306
a(F27.440075643632156
I48
tp1307
a(F30.19881254473414
I48
tp1308
a(F184.36374134092927
I58
tp1309
a(F183.95705925971575
I58
tp1310
a(F33.87563951945151
I49
tp1311
a(F184.90509190252865
I58
tp1312
a(F183.33443351761576
I58
tp1313
a(F180.5520212772885
I42
tp1314
a(F45.61756272183073
I42
tp1315
a(F179.03268302227238
I42
tp1316
a(F45.7863630684548
I42
tp1317
a(F178.8780256995069
I42
tp1318
a(F177.53421511302338
I42
tp1319
a(F174.88663869786157
I42
tp1320
a(F167.0310379631174
I42
tp1321
a(F159.18982031221836
I42
tp1322
a(F155.2752862339541
I42
tp1323
a(F128.0215758496839
I42
tp1324
a(F124.15530398269888
I42
tp1325
a(F51.33080933548935
I42
tp1326
a(F163.12787484103828
I42
tp1327
a(F151.3860971891192
I42
tp1328
a(F147.4814091543522
I42
tp1329
a(F135.80063666328462
I42
tp1330
a(F131.91978070840418
I42
tp1331
a(F120.32404337518517
I42
tp1332
a(F143.61574498666684
I42
tp1333
a(F139.72293237717037
I42
tp1334
a(F54.31339117271318
I42
tp1335
a(F118.20640857125485
I42
tp1336
a(F62.57479221443854
I42
tp1337
a(F118.77734766501054
I35
tp1338
a(F116.19609551841849
I35
tp1339
a(F115.96450745691733
I35
tp1340
a(F69.55189623385867
I35
tp1341
a(F71.25050664634811
I35
tp1342
a(F111.00593720308291
I35
tp1343
a(F73.24556047224148
I35
tp1344
a(F107.4844824956667
I35
tp1345
a(F76.29911968129755
I35
tp1346
a(F80.80338640388037
I35
tp1347
a(F90.66780748486809
I35
tp1348
a(F84.12494746573756
I35
tp1349
a(F1715.6353244452077
I263
tp1350
a(F1712.91288214098
I263
tp1351
a(F1720.2835626174046
I263
tp1352
a(F1710.8912455431564
I263
tp1353
a(F1723.862503370943
I263
tp1354
a(F1724.7229396488553
I263
tp1355
a(F1714.178595919232
I263
tp1356
a(F1723.8218765823885
I263
tp1357
a(F1721.115242677356
I263
tp1358
a(F1717.764178322605
I263
tp1359
a(F1717.1783081716153
I263
tp1360
a(F1708.129273327124
I263
tp1361
a(F1727.5654303907445
I263
tp1362
a(F1724.5581837457585
I263
tp1363
a(F1706.776483223704
I263
tp1364
a(F1731.8513698633988
I263
tp1365
a(F1732.7040973638361
I263
tp1366
a(F1738.341914906309
I263
tp1367
a(F1718.1897318861347
I263
tp1368
a(F1913.9592743295373
I98
tp1369
a(F1930.9487308635669
I98
tp1370
a(F1912.3227054010617
I98
tp1371
a(F1936.9570384915805
I98
tp1372
a(F1913.1946248514384
I98
tp1373
a(F1939.0455968957033
I98
tp1374
a(F1915.2869568833858
I98
tp1375
a(F1921.3218479729123
I98
tp1376
a(F1923.438433292015
I98
tp1377
a(F1926.4705257235687
I98
tp1378
a(F1928.5981358137929
I98
tp1379
a(F1931.6141745703917
I98
tp1380
a(F1933.7525496753842
I98
tp1381
a(F1972.3680549611506
I98
tp1382
a(F1972.0690058250552
I98
tp1383
a(F1945.9450152977279
I98
tp1384
a(F1953.8629533704943
I98
tp1385
a(F1958.1178551214127
I98
tp1386
a(F1964.831048785626
I98
tp1387
a(F1961.1873826047383
I98
tp1388
a(F1726.0260201380784
I263
tp1389
a(F1748.8894793284455
I263
tp1390
a(F1733.141336130159
I263
tp1391
a(F1897.3517161237608
I263
tp1392
a(F1923.7730854981066
I263
tp1393
a(F1914.7161234104867
I98
tp1394
a(F1972.082898672638
I98
tp1395
a(F1931.2765248459273
I98
tp1396
a(F1986.5765593963802
I98
tp1397
a(F1988.7741818070099
I98
tp1398
a(F1984.2290739528896
I98
tp1399
a(F1723.741039299559
I263
tp1400
a(F1757.3650489546271
I263
tp1401
a(F1947.5768919325212
I263
tp1402
a(F1949.6503562026458
I263
tp1403
a(F1928.3362862738973
I263
tp1404
a(F1935.7849133693708
I98
tp1405
a(F1973.1086727040176
I98
tp1406
a(F2003.2979265663837
I98
tp1407
a(F2011.2918704251397
I98
tp1408
a(F2001.4036912772374
I98
tp1409
a(F1751.9402658073577
I263
tp1410
a(F1770.6391971236887
I263
tp1411
a(F1786.7787330622966
I263
tp1412
a(F1748.2495530717244
I263
tp1413
a(F1777.6754899225857
I263
tp1414
a(F2114.2308006448525
I263
tp1415
a(F2103.720549800133
I263
tp1416
a(F2117.619474722353
I263
tp1417
a(F2100.1395259561623
I263
tp1418
a(F2100.6939640065775
I263
tp1419
a(F2118.7031372213337
I263
tp1420
a(F2097.1891548560106
I263
tp1421
a(F2094.8893176677752
I263
tp1422
a(F2115.1726956689663
I263
tp1423
a(F2091.9845581202712
I263
tp1424
a(F2115.748429350563
I263
tp1425
a(F2115.1728032441038
I263
tp1426
a(F2088.5723861637325
I263
tp1427
a(F2115.7661816418595
I263
tp1428
a(F2089.1928868018676
I263
tp1429
a(F2088.0895798251945
I263
tp1430
a(F2115.210732448075
I263
tp1431
a(F2115.8217444906304
I263
tp1432
a(F2114.708913067803
I263
tp1433
a(F2114.1818407314345
I263
tp1434
a(F2090.021737672256
I263
tp1435
a(F2113.084302429025
I263
tp1436
a(F2088.9472404625153
I263
tp1437
a(F2113.726310173162
I263
tp1438
a(F2112.5971339494367
I263
tp1439
a(F2090.2909892682655
I263
tp1440
a(F2113.2543075317903
I263
tp1441
a(F1967.4332770083258
I98
tp1442
a(F2111.1178817906175
I263
tp1443
a(F2111.7983904312355
I263
tp1444
a(F2110.700507213546
I263
tp1445
a(F2099.2750938215254
I263
tp1446
a(F2107.91405376977
I263
tp1447
a(F2102.8032066378814
I263
tp1448
a(F2106.8275225954467
I263
tp1449
a(F1984.1244295142528
I98
tp1450
a(F1990.8645343982564
I98
tp1451
a(F2004.7111697683783
I98
tp1452
a(F2008.9744813121845
I98
tp1453
a(F2006.962392225973
I98
tp1454
a(F1801.0768774062371
I263
tp1455
a(F1784.2727051788268
I263
tp1456
a(F1790.103988237229
I263
tp1457
a(F1833.1289201145
I263
tp1458
a(F1839.310220186956
I263
tp1459
a(F1818.6829993801464
I263
tp1460
a(F1844.8752337424307
I263
tp1461
a(F2129.925888951956
I263
tp1462
a(F2136.733913152703
I263
tp1463
a(F2107.9959765558665
I263
tp1464
a(F1973.388776353424
I263
tp1465
a(F1966.7453632392314
I263
tp1466
a(F1968.2940302969819
I263
tp1467
a(F2037.650139035688
I263
tp1468
a(F2015.8069370706762
I263
tp1469
a(F2099.500427022436
I263
tp1470
a(F2060.1689460545026
I263
tp1471
a(F2105.6901925708094
I263
tp1472
a(F2006.5648659379337
I263
tp1473
a(F2150.7694165037783
I263
tp1474
a(F2091.580543726878
I263
tp1475
a(F2118.3724273571233
I263
tp1476
a(F2119.364240687425
I263
tp1477
a(F2115.1462750872897
I263
tp1478
a(F2167.3236564241492
I263
tp1479
a(F2112.746550377978
I263
tp1480
a(F2171.0552902144736
I263
tp1481
a(F2140.372967638788
I98
tp1482
a(F2038.179397948378
I98
tp1483
a(F2011.679678040204
I98
tp1484
a(F2072.643172113769
I98
tp1485
a(F2111.8853952917407
I98
tp1486
a(F1818.6485262020285
I263
tp1487
a(F1886.469150981772
I263
tp1488
a(F1876.5925854644038
I263
tp1489
a(F1917.2685000969088
I263
tp1490
a(F1918.3019673038636
I263
tp1491
a(F2107.2160287171987
I263
tp1492
a(F1919.0078291278467
I263
tp1493
a(F2123.077907900319
I263
tp1494
a(F1919.089463638558
I263
tp1495
a(F1931.8206916503104
I263
tp1496
a(F1905.909014294539
I263
tp1497
a(F1961.718225462486
I263
tp1498
a(F2140.423686962628
I263
tp1499
a(F2098.842360678139
I263
tp1500
a(F2152.62204187529
I263
tp1501
a(F2000.2987772367308
I263
tp1502
a(F2166.644744716687
I263
tp1503
a(F1948.7955285462567
I263
tp1504
a(F2047.54374689689
I263
tp1505
a(F2054.810229488702
I263
tp1506
a(F1975.893736972862
I98
tp1507
a(F2108.2860711415065
I263
tp1508
a(F2036.7186613727788
I263
tp1509
a(F2205.0668730361376
I263
tp1510
a(F2009.5588146824196
I98
tp1511
a(F2167.645751046563
I98
tp1512
a(F2143.2991885744395
I98
tp1513
a(F2135.7632544848716
I98
tp1514
a(F1812.1819550705459
I263
tp1515
a(F1795.1627492205544
I263
tp1516
a(F1849.550432970462
I263
tp1517
a(F1793.3628412751093
I263
tp1518
a(F1805.9615855413883
I263
tp1519
a(F1922.856759903994
I263
tp1520
a(F1945.4790386028092
I263
tp1521
a(F1856.0045373451167
I263
tp1522
a(F2120.757362516412
I263
tp1523
a(F2001.6453144606203
I263
tp1524
a(F2144.5081213847384
I263
tp1525
a(F1890.5221994270535
I263
tp1526
a(F1928.8943590830065
I263
tp1527
a(F2171.365657649193
I263
tp1528
a(F2081.406685433999
I263
tp1529
a(F1942.6006311072
I263
tp1530
a(F2126.6748766247397
I263
tp1531
a(F2107.395157525034
I263
tp1532
a(F2194.681771033736
I263
tp1533
a(F2051.4387199366397
I98
tp1534
a(F2207.880051745267
I263
tp1535
a(F2180.614382537011
I263
tp1536
a(F2073.014328037435
I98
tp1537
a(F2140.592806946271
I98
tp1538
a(F2091.7754290437833
I98
tp1539
a(F2112.1826346913435
I98
tp1540
a(F1663.4972138266885
I263
tp1541
a(F1660.2386677900124
I263
tp1542
a(F1654.9744872548858
I263
tp1543
a(F1670.3682944552493
I263
tp1544
a(F1654.1112140848745
I263
tp1545
a(F1803.6126735916805
I263
tp1546
a(F1651.4960911465846
I263
tp1547
a(F1673.3584540080406
I263
tp1548
a(F1676.8222769945037
I263
tp1549
a(F1649.792666290269
I263
tp1550
a(F1679.8200691883264
I263
tp1551
a(F1650.6678371543662
I263
tp1552
a(F1683.239760732245
I263
tp1553
a(F1686.2449309347946
I263
tp1554
a(F1656.0479448423132
I263
tp1555
a(F1791.1877143968622
I263
tp1556
a(F1688.1753901082936
I263
tp1557
a(F1689.0348232354313
I263
tp1558
a(F1669.6391691860995
I263
tp1559
a(F1666.4182215663775
I263
tp1560
a(F1687.1093524538762
I263
tp1561
a(F1677.4141315731597
I263
tp1562
a(F1832.99778239106
I263
tp1563
a(F1963.2350373892787
I263
tp1564
a(F1862.0330432469477
I263
tp1565
a(F2030.9944690825928
I263
tp1566
a(F2063.673987415819
I263
tp1567
a(F2102.775445692828
I263
tp1568
a(F2124.501116475138
I263
tp1569
a(F2157.245899625809
I263
tp1570
a(F1992.5955877520698
I98
tp1571
a(F2170.5447240405383
I263
tp1572
a(F2020.375367711989
I98
tp1573
a(F2126.905765843489
I98
tp1574
a(F2065.1296868366426
I98
tp1575
a(F2092.6001148272508
I98
tp1576
a(F1657.9842006583392
I263
tp1577
a(F1651.28065365542
I263
tp1578
a(F1650.1539315167763
I263
tp1579
a(F1681.5236563547573
I263
tp1580
a(F1654.18757774953
I263
tp1581
a(F1691.6371889789702
I263
tp1582
a(F1661.4792273467256
I263
tp1583
a(F1665.379487706324
I263
tp1584
a(F1693.3380521965105
I263
tp1585
a(F1668.775263951179
I263
tp1586
a(F1692.806587729637
I263
tp1587
a(F1680.5296964086435
I263
tp1588
a(F1683.877342531894
I263
tp1589
a(F1694.5251616133814
I263
tp1590
a(F1691.7363527728435
I263
tp1591
a(F1733.321221068857
I263
tp1592
a(F1788.490507344245
I263
tp1593
a(F1657.553889958724
I263
tp1594
a(F1696.4220488343024
I263
tp1595
a(F1852.8838911672353
I263
tp1596
a(F1649.7980657831072
I263
tp1597
a(F1695.3907868613408
I263
tp1598
a(F1891.138962347716
I263
tp1599
a(F1662.6108747918925
I263
tp1600
a(F1788.030449393665
I263
tp1601
a(F1937.8141549053119
I263
tp1602
a(F1831.933542229467
I263
tp1603
a(F1956.0758075991196
I263
tp1604
a(F1858.37489168187
I263
tp1605
a(F1994.876960841543
I263
tp1606
a(F1879.9708881830422
I263
tp1607
a(F2028.7837339398848
I263
tp1608
a(F1927.9732792780856
I263
tp1609
a(F2078.106560191481
I263
tp1610
a(F2032.3871107252605
I263
tp1611
a(F2071.072429311909
I263
tp1612
a(F2035.059502483644
I263
tp1613
a(F2114.5829484865762
I263
tp1614
a(F2121.0779278632185
I263
tp1615
a(F2064.881516257823
I263
tp1616
a(F2115.432111518542
I263
tp1617
a(F2090.580322997457
I263
tp1618
a(F2042.0488303760308
I98
tp1619
a(F2088.288968023812
I98
tp1620
a(F2065.5963665413074
I98
tp1621
a(F1693.043542954925
I263
tp1622
a(F1683.325315900745
I263
tp1623
a(F1691.1745017010344
I263
tp1624
a(F1719.1948795088608
I263
tp1625
a(F1707.8543415450742
I263
tp1626
a(F1772.9663225842696
I263
tp1627
a(F1767.5561293773367
I263
tp1628
a(F1668.5837195400957
I263
tp1629
a(F1800.9034273606214
I263
tp1630
a(F1822.1087902574113
I263
tp1631
a(F1648.8264454818182
I263
tp1632
a(F1745.9797262632424
I263
tp1633
a(F1867.1819116845102
I263
tp1634
a(F1726.3080185987562
I263
tp1635
a(F1751.9647384407253
I263
tp1636
a(F1699.0172675287263
I263
tp1637
a(F1769.832288803555
I263
tp1638
a(F1911.5529195672639
I263
tp1639
a(F1821.3853722155827
I263
tp1640
a(F1840.475369043996
I263
tp1641
a(F1950.8846094902453
I263
tp1642
a(F1978.7387486236662
I263
tp1643
a(F1856.2257472076449
I263
tp1644
a(F1990.3280553084282
I263
tp1645
a(F2016.7166750196996
I263
tp1646
a(F2027.224774282891
I263
tp1647
a(F1971.3438063215003
I98
tp1648
a(F2050.336590068064
I263
tp1649
a(F2010.4801557558371
I98
tp1650
a(F2042.8004061550512
I98
tp1651
a(F2083.7782965886936
I98
tp1652
a(F2091.1791078063256
I98
tp1653
a(F2075.050197277774
I98
tp1654
a(F1720.5267289815943
I263
tp1655
a(F1710.745121242146
I263
tp1656
a(F1740.6442474167538
I263
tp1657
a(F1769.7527308042472
I263
tp1658
a(F1718.3661572821338
I263
tp1659
a(F1707.4723590978174
I263
tp1660
a(F1686.7583789731264
I263
tp1661
a(F1656.686472755039
I263
tp1662
a(F1686.937742359341
I263
tp1663
a(F1666.3475410201274
I263
tp1664
a(F1814.1446791236658
I263
tp1665
a(F1751.6142725005186
I263
tp1666
a(F1729.8721391638865
I263
tp1667
a(F1852.8577891786322
I263
tp1668
a(F1836.0688646200842
I263
tp1669
a(F1897.0052750562938
I263
tp1670
a(F1850.694544457167
I263
tp1671
a(F1948.9848011878182
I263
tp1672
a(F1878.6545197330647
I263
tp1673
a(F1914.4739886873826
I263
tp1674
a(F1941.7421603958003
I263
tp1675
a(F1984.4935910357524
I263
tp1676
a(F2009.7962210403582
I263
tp1677
a(F2042.7639142722596
I263
tp1678
a(F2062.2257042766973
I263
tp1679
a(F2033.6103706992742
I98
tp1680
a(F2074.8434962930155
I98
tp1681
a(F2057.6821695301182
I98
tp1682
a(F2066.337897736334
I98
tp1683
a(F2121.5665868920555
I98
tp1684
a(F2118.556065518553
I98
tp1685
a(F1928.578504722816
I263
tp1686
a(F710.7882484890723
I464
tp1687
a(F727.150335205976
I464
tp1688
a(F732.0941966237426
I464
tp1689
a(F745.3536431588453
I464
tp1690
a(F708.5836032270033
I464
tp1691
a(F729.8470396611631
I464
tp1692
a(F753.5219487885959
I464
tp1693
a(F755.8656723996422
I464
tp1694
a(F767.1366213916289
I464
tp1695
a(F769.5194495827661
I464
tp1696
a(F775.7995860724362
I464
tp1697
a(F775.724457385587
I464
tp1698
a(F773.949958510344
I464
tp1699
a(F771.7236078092748
I464
tp1700
a(F771.6840019866702
I464
tp1701
a(F768.4766801316506
I464
tp1702
a(F768.5335672188712
I464
tp1703
a(F767.7863610329134
I464
tp1704
a(F768.0782540185364
I464
tp1705
a(F769.3269552434539
I464
tp1706
a(F769.4656588179639
I464
tp1707
a(F1738.0202639487686
I263
tp1708
a(F1725.4971470862001
I263
tp1709
a(F1711.814208298393
I263
tp1710
a(F1630.4315464209942
I263
tp1711
a(F1645.427935628534
I263
tp1712
a(F1712.952649856379
I263
tp1713
a(F1810.8927883535798
I263
tp1714
a(F1740.8221153516972
I263
tp1715
a(F1769.4617017123999
I263
tp1716
a(F1783.1316442783811
I263
tp1717
a(F1803.7320692832388
I263
tp1718
a(F2111.0506264898086
I263
tp1719
a(F2047.5602431059692
I263
tp1720
a(F2050.022660397096
I263
tp1721
a(F2128.09821887263
I263
tp1722
a(F2069.8807485045377
I263
tp1723
a(F2159.368152416654
I263
tp1724
a(F2151.236039158705
I98
tp1725
a(F2092.323945068834
I98
tp1726
a(F2078.7478918652114
I98
tp1727
a(F2109.0600582209186
I98
tp1728
a(F847.5735887783446
I464
tp1729
a(F845.7505601950968
I464
tp1730
a(F854.9930608571725
I464
tp1731
a(F769.9260460623245
I464
tp1732
a(F857.771886220613
I464
tp1733
a(F721.3047296817485
I464
tp1734
a(F846.5460236929354
I464
tp1735
a(F859.7797160894511
I464
tp1736
a(F848.4786331461318
I464
tp1737
a(F849.3092199343699
I464
tp1738
a(F852.478847755368
I464
tp1739
a(F876.9679232120506
I464
tp1740
a(F856.5436126117086
I464
tp1741
a(F859.380725782507
I464
tp1742
a(F880.9759389032531
I464
tp1743
a(F780.6186357238995
I464
tp1744
a(F863.5287055120174
I464
tp1745
a(F884.2143610026136
I464
tp1746
a(F866.4779203526206
I464
tp1747
a(F885.1320782636117
I464
tp1748
a(F868.5420126067626
I464
tp1749
a(F870.4894866768959
I464
tp1750
a(F870.377747855839
I464
tp1751
a(F885.8580775667848
I464
tp1752
a(F871.3958820987177
I464
tp1753
a(F883.4393915772151
I464
tp1754
a(F871.2378269302898
I464
tp1755
a(F883.3596299050103
I464
tp1756
a(F782.5456375361332
I464
tp1757
a(F881.7598929795232
I464
tp1758
a(F866.571519680986
I464
tp1759
a(F880.5227969510321
I464
tp1760
a(F860.5176453237481
I464
tp1761
a(F859.0770643049767
I464
tp1762
a(F880.5012738453365
I464
tp1763
a(F877.4583715198802
I464
tp1764
a(F860.2076273684494
I464
tp1765
a(F875.9178296977796
I464
tp1766
a(F863.1676579588774
I464
tp1767
a(F869.9116488760301
I464
tp1768
a(F788.3589476415742
I464
tp1769
a(F784.3410921586288
I464
tp1770
a(F1684.2927545451134
I263
tp1771
a(F1763.7006531286704
I263
tp1772
a(F1694.1916452349983
I263
tp1773
a(F1675.749505149288
I263
tp1774
a(F1795.6058122303148
I263
tp1775
a(F1794.4615262647344
I263
tp1776
a(F2073.9937101377072
I263
tp1777
a(F2080.453877202328
I263
tp1778
a(F2137.7680547795258
I263
tp1779
a(F2074.7277944461302
I263
tp1780
a(F2101.6152223368003
I263
tp1781
a(F2076.8406176659473
I98
tp1782
a(F2177.3940865177924
I98
tp1783
a(F2104.702918613624
I98
tp1784
a(F741.6763305946193
I464
tp1785
a(F798.2511659533617
I464
tp1786
a(F724.2993613500518
I464
tp1787
a(F799.271862032975
I464
tp1788
a(F893.295014593864
I464
tp1789
a(F879.0868367833122
I464
tp1790
a(F877.5878695944028
I464
tp1791
a(F904.3696726235314
I464
tp1792
a(F864.4538669315947
I464
tp1793
a(F862.0059084146058
I464
tp1794
a(F871.1961962820787
I464
tp1795
a(F812.6421782503863
I464
tp1796
a(F805.7919196120627
I464
tp1797
a(F1657.0276964758534
I263
tp1798
a(F1723.897860710886
I263
tp1799
a(F1740.8355793333824
I263
tp1800
a(F1798.5083589448989
I263
tp1801
a(F2132.073381964789
I263
tp1802
a(F2096.0338611793304
I263
tp1803
a(F2125.6071174401686
I263
tp1804
a(F2131.631338008456
I263
tp1805
a(F2119.6654404207843
I263
tp1806
a(F2160.2454665466985
I263
tp1807
a(F2084.851749427285
I263
tp1808
a(F2172.2825658034126
I263
tp1809
a(F2115.50008327606
I98
tp1810
a(F2141.2069305553996
I98
tp1811
a(F2152.0925676164343
I98
tp1812
a(F2084.8252019103015
I98
tp1813
a(F2123.864341947727
I98
tp1814
a(F2130.5810408683965
I98
tp1815
a(F2107.6777070414946
I98
tp1816
a(F2118.960499457507
I263
tp1817
a(F760.1689800684093
I464
tp1818
a(F840.1986558659194
I464
tp1819
a(F732.3644769591011
I464
tp1820
a(F714.825046289451
I464
tp1821
a(F831.9219586156886
I464
tp1822
a(F849.0532114617504
I464
tp1823
a(F850.5105151991185
I464
tp1824
a(F890.3990580771825
I464
tp1825
a(F866.6398742604785
I464
tp1826
a(F810.6260330381197
I464
tp1827
a(F815.1956520091995
I464
tp1828
a(F804.5051533375251
I464
tp1829
a(F803.7578281041092
I464
tp1830
a(F1621.8874487776698
I263
tp1831
a(F1593.4854531596825
I263
tp1832
a(F1594.3616708285138
I263
tp1833
a(F1617.908134209193
I263
tp1834
a(F1635.687272670442
I263
tp1835
a(F1675.2451897286956
I263
tp1836
a(F1725.3055554059001
I263
tp1837
a(F1778.9982686465048
I263
tp1838
a(F1745.8721788221274
I263
tp1839
a(F2139.970867365559
I263
tp1840
a(F2105.9922880587237
I263
tp1841
a(F2120.1483550812018
I263
tp1842
a(F2101.6335766249313
I263
tp1843
a(F2143.4232778311025
I263
tp1844
a(F2153.9334321209462
I263
tp1845
a(F2104.4658135296577
I98
tp1846
a(F2153.027563327161
I98
tp1847
a(F2152.4796621241403
I98
tp1848
a(F2130.251010594498
I98
tp1849
a(F2152.212941887969
I98
tp1850
a(F2170.395559356409
I98
tp1851
a(F2158.0091048376935
I98
tp1852
a(F2192.2900537737232
I98
tp1853
a(F2210.215005940675
I98
tp1854
a(F2215.3674255860865
I98
tp1855
a(F2207.129348230143
I98
tp1856
a(F825.4520854019053
I464
tp1857
a(F738.7605943141863
I464
tp1858
a(F840.9452015525613
I464
tp1859
a(F842.6518399015969
I464
tp1860
a(F896.3843755692395
I464
tp1861
a(F884.6560277957564
I464
tp1862
a(F848.2955172791521
I464
tp1863
a(F916.5896620381582
I464
tp1864
a(F873.1045054637462
I464
tp1865
a(F873.6311334568456
I464
tp1866
a(F874.162020010646
I464
tp1867
a(F933.1064590922745
I464
tp1868
a(F892.6598250939816
I464
tp1869
a(F848.6337722483491
I464
tp1870
a(F922.1432083061646
I464
tp1871
a(F863.9081757342666
I464
tp1872
a(F836.459105118572
I464
tp1873
a(F814.0618374307279
I464
tp1874
a(F1626.6445251646885
I263
tp1875
a(F1557.7246791149623
I308
tp1876
a(F1650.9241192647253
I263
tp1877
a(F1693.2799442306211
I263
tp1878
a(F1564.7305386858443
I308
tp1879
a(F1725.237314036645
I263
tp1880
a(F1587.2105310546415
I308
tp1881
a(F1617.4651775933162
I263
tp1882
a(F1624.3082274851977
I308
tp1883
a(F1755.725739129015
I263
tp1884
a(F1747.482617928157
I263
tp1885
a(F2157.9564317408626
I263
tp1886
a(F2137.4781023946593
I263
tp1887
a(F2239.7860791278563
I98
tp1888
a(F2250.445259104613
I98
tp1889
a(F2215.0889190817766
I98
tp1890
a(F2214.564188676499
I98
tp1891
a(F2248.930069118139
I98
tp1892
a(F2218.542318201691
I98
tp1893
a(F851.744135129948
I464
tp1894
a(F804.8473980796313
I464
tp1895
a(F878.8723377768865
I464
tp1896
a(F776.1202776092802
I464
tp1897
a(F872.7001216895758
I464
tp1898
a(F749.1497893736849
I464
tp1899
a(F738.1275115382401
I464
tp1900
a(F873.0201350685162
I464
tp1901
a(F918.3144678491005
I464
tp1902
a(F935.0171847089105
I464
tp1903
a(F912.3119424124027
I464
tp1904
a(F910.7512030086124
I464
tp1905
a(F940.7409687164871
I464
tp1906
a(F901.877435170453
I464
tp1907
a(F870.4995012984089
I464
tp1908
a(F900.3627818588394
I464
tp1909
a(F941.3056616195278
I464
tp1910
a(F942.3150789268825
I464
tp1911
a(F906.192077286726
I464
tp1912
a(F909.8238573329955
I464
tp1913
a(F939.1732558930981
I464
tp1914
a(F936.1843328596683
I464
tp1915
a(F934.7388290946469
I464
tp1916
a(F918.5586759855306
I464
tp1917
a(F925.1531282789304
I464
tp1918
a(F854.497309439298
I464
tp1919
a(F928.8369675357332
I464
tp1920
a(F861.1980553703837
I464
tp1921
a(F842.5962771673652
I464
tp1922
a(F825.6518504844231
I464
tp1923
a(F818.6667674638044
I464
tp1924
a(F1539.318149371198
I308
tp1925
a(F1549.6868601893664
I308
tp1926
a(F1571.1580285700315
I308
tp1927
a(F1576.2973379957439
I308
tp1928
a(F1610.6214033577264
I308
tp1929
a(F1644.4508326701157
I308
tp1930
a(F1693.6319027917818
I263
tp1931
a(F1729.756478264564
I263
tp1932
a(F1625.8019620621683
I308
tp1933
a(F1635.114140500781
I308
tp1934
a(F1652.6088583563555
I308
tp1935
a(F1659.3878999454075
I308
tp1936
a(F1657.3066456205154
I308
tp1937
a(F1666.4412227154116
I308
tp1938
a(F2163.2336604298475
I263
tp1939
a(F2145.977526732621
I263
tp1940
a(F2137.998218801339
I263
tp1941
a(F2156.042372265541
I263
tp1942
a(F2281.506520396284
I98
tp1943
a(F2284.573421142103
I98
tp1944
a(F2275.2497081629413
I98
tp1945
a(F2284.5009087475355
I98
tp1946
a(F2269.7245717881187
I98
tp1947
a(F2268.1486200221348
I98
tp1948
a(F2281.3016611756457
I98
tp1949
a(F2278.1992145014774
I98
tp1950
a(F2261.9336482487524
I98
tp1951
a(F2260.342347051026
I98
tp1952
a(F2257.258465652644
I98
tp1953
a(F2275.0294696317524
I98
tp1954
a(F2271.910907446888
I98
tp1955
a(F2255.6763597898434
I98
tp1956
a(F2252.600415124517
I98
tp1957
a(F2270.351439214544
I98
tp1958
a(F2266.8718298482495
I98
tp1959
a(F2263.7631751211875
I98
tp1960
a(F2256.813723785541
I98
tp1961
a(F2255.2715475144705
I98
tp1962
a(F888.6939068207133
I464
tp1963
a(F935.2967471322593
I464
tp1964
a(F857.7957793356896
I464
tp1965
a(F927.8472670389202
I464
tp1966
a(F812.0094130652785
I464
tp1967
a(F893.6785650757383
I464
tp1968
a(F770.3457194632238
I464
tp1969
a(F746.2755173979943
I464
tp1970
a(F822.8560978821698
I464
tp1971
a(F1521.0110426400424
I308
tp1972
a(F1529.3613543806891
I308
tp1973
a(F1610.6983165141464
I308
tp1974
a(F1634.3558155346986
I308
tp1975
a(F1548.6237820943916
I308
tp1976
a(F1660.4452150675259
I263
tp1977
a(F1687.1013842674179
I308
tp1978
a(F1704.9788127829156
I263
tp1979
a(F1680.8515977455625
I263
tp1980
a(F1659.3282663755397
I308
tp1981
a(F1642.5021759220078
I308
tp1982
a(F1653.3300003439201
I308
tp1983
a(F1648.8919295102917
I308
tp1984
a(F2171.87832459687
I263
tp1985
a(F2173.890952233649
I263
tp1986
a(F2170.629628339608
I263
tp1987
a(F910.0689318492107
I464
tp1988
a(F896.8034458156338
I464
tp1989
a(F929.6682853043204
I464
tp1990
a(F871.9130858246807
I464
tp1991
a(F849.2880118024591
I464
tp1992
a(F908.6090543522421
I464
tp1993
a(F784.7594163900022
I464
tp1994
a(F806.3493133108057
I464
tp1995
a(F871.3429406299282
I464
tp1996
a(F867.5529423330067
I464
tp1997
a(F845.0478787598382
I464
tp1998
a(F789.422436938812
I464
tp1999
a(F767.9803816479085
I464
tp2000
a(F787.0858821753872
I464
tp2001
a(F1130.5244689095248
I464
tp2002
a(F1137.5590732455012
I464
tp2003
a(F1140.4006911762037
I464
tp2004
a(F1143.9245043249853
I464
tp2005
a(F850.2171777480806
I464
tp2006
a(F1150.4985171694761
I464
tp2007
a(F1131.3378516478458
I464
tp2008
a(F1153.7511903374848
I464
tp2009
a(F1133.7120101582955
I464
tp2010
a(F1156.127759640414
I464
tp2011
a(F1142.2417414510658
I464
tp2012
a(F857.7130605936017
I464
tp2013
a(F1145.2974404787444
I464
tp2014
a(F1148.146035345314
I464
tp2015
a(F1156.9542585509435
I464
tp2016
a(F1150.5385286400292
I464
tp2017
a(F1155.8205780419223
I464
tp2018
a(F1153.390652466528
I464
tp2019
a(F821.2560087373263
I464
tp2020
a(F1494.1533505848877
I308
tp2021
a(F1490.7882982643869
I308
tp2022
a(F1572.7844253576843
I308
tp2023
a(F1605.725466001587
I308
tp2024
a(F1503.796304260867
I308
tp2025
a(F1692.5501252064037
I308
tp2026
a(F1668.4001675910783
I308
tp2027
a(F1711.9978237018604
I263
tp2028
a(F1715.5555790257672
I263
tp2029
a(F1615.3062222267888
I308
tp2030
a(F1668.7439472057831
I308
tp2031
a(F2168.502111318607
I263
tp2032
a(F2173.2020559364564
I263
tp2033
a(F2162.991396423515
I263
tp2034
a(F2177.0913068050027
I263
tp2035
a(F1652.4602084344285
I308
tp2036
a(F932.7381242173553
I448
tp2037
a(F919.8747450813396
I448
tp2038
a(F947.662053789356
I448
tp2039
a(F901.3008683801131
I464
tp2040
a(F957.1283608027286
I464
tp2041
a(F866.7926585286224
I464
tp2042
a(F841.2165517647622
I464
tp2043
a(F949.9979136257099
I464
tp2044
a(F908.1164668063778
I464
tp2045
a(F894.24892593076
I464
tp2046
a(F833.3604703568035
I464
tp2047
a(F894.2738169198858
I464
tp2048
a(F928.3105980142725
I464
tp2049
a(F849.164041808738
I464
tp2050
a(F880.5439557677482
I464
tp2051
a(F1147.089077589189
I464
tp2052
a(F903.4052810376943
I464
tp2053
a(F1165.6998827411726
I464
tp2054
a(F814.4411190910458
I464
tp2055
a(F838.2458993460459
I464
tp2056
a(F1159.3091721702515
I464
tp2057
a(F853.2776289553485
I464
tp2058
a(F877.4657740508253
I464
tp2059
a(F878.8982714671691
I464
tp2060
a(F811.3756585277009
I464
tp2061
a(F834.4124348532309
I464
tp2062
a(F840.1414207151955
I464
tp2063
a(F1255.1386336270355
I308
tp2064
a(F1258.5254859407055
I308
tp2065
a(F1254.3964255331675
I308
tp2066
a(F1254.7762356607218
I308
tp2067
a(F1267.5152494334295
I308
tp2068
a(F1270.130543443218
I308
tp2069
a(F1257.0972569177134
I308
tp2070
a(F1276.1375122504244
I308
tp2071
a(F1262.4383771017754
I308
tp2072
a(F1278.7990360312733
I308
tp2073
a(F1280.530223869204
I308
tp2074
a(F1269.6126103430286
I308
tp2075
a(F1281.3348466488771
I308
tp2076
a(F1280.6611350109326
I308
tp2077
a(F1275.6923391842224
I308
tp2078
a(F1279.0436410190002
I308
tp2079
a(F1462.3128642784454
I308
tp2080
a(F1452.18086492804
I308
tp2081
a(F1483.2093773870733
I308
tp2082
a(F1519.8141906055891
I308
tp2083
a(F1579.841774965498
I308
tp2084
a(F1611.744462216124
I308
tp2085
a(F1574.0675778536686
I308
tp2086
a(F1699.7829196949035
I308
tp2087
a(F1703.553338699343
I308
tp2088
a(F1697.27073489225
I308
tp2089
a(F1707.2812740016514
I308
tp2090
a(F1710.128060255873
I308
tp2091
a(F1711.9277619579964
I308
tp2092
a(F1696.854892001182
I308
tp2093
a(F1699.7185547661168
I308
tp2094
a(F1709.285977187701
I308
tp2095
a(F1703.0370172378857
I308
tp2096
a(F2178.85342839899
I263
tp2097
a(F2175.99924773221
I263
tp2098
a(F2182.2146530903
I263
tp2099
a(F2174.8515331144285
I263
tp2100
a(F2172.0067659119504
I263
tp2101
a(F2185.4993827320154
I263
tp2102
a(F2171.4039097178993
I263
tp2103
a(F2170.2801848061044
I263
tp2104
a(F2171.950611879105
I263
tp2105
a(F2180.8966933816796
I263
tp2106
a(F2174.7490078295764
I263
tp2107
a(F2178.6595000903726
I263
tp2108
a(F964.9129169886518
I448
tp2109
a(F949.617609540299
I448
tp2110
a(F926.1010231756734
I448
tp2111
a(F966.8177367513089
I448
tp2112
a(F915.856421349224
I448
tp2113
a(F977.0905084671718
I448
tp2114
a(F892.5069748582528
I464
tp2115
a(F880.4024163713406
I464
tp2116
a(F923.7749388720978
I464
tp2117
a(F908.6681569170853
I464
tp2118
a(F892.6982403682813
I464
tp2119
a(F873.5734803010419
I464
tp2120
a(F861.962085556052
I464
tp2121
a(F891.0490892675238
I464
tp2122
a(F902.673864245224
I464
tp2123
a(F934.0784830650205
I464
tp2124
a(F832.8078061665593
I464
tp2125
a(F877.4153283663529
I464
tp2126
a(F918.1537879040811
I464
tp2127
a(F1131.668681110047
I464
tp2128
a(F853.9636761785102
I464
tp2129
a(F882.0517541721663
I464
tp2130
a(F827.3230424763588
I464
tp2131
a(F824.0125276424563
I464
tp2132
a(F1187.910583026133
I308
tp2133
a(F1204.129101852042
I308
tp2134
a(F1204.466924475648
I308
tp2135
a(F1221.138032884041
I308
tp2136
a(F1254.6688779556596
I308
tp2137
a(F1232.1046415838325
I308
tp2138
a(F1217.671271835323
I308
tp2139
a(F1234.3797641875035
I308
tp2140
a(F1269.7152235079927
I308
tp2141
a(F1287.219633577397
I308
tp2142
a(F1264.455045686193
I308
tp2143
a(F1295.2420320186475
I308
tp2144
a(F1303.9514506276653
I308
tp2145
a(F1425.4070993462662
I308
tp2146
a(F1315.1819537838826
I308
tp2147
a(F1292.1231854149994
I308
tp2148
a(F1362.3611573162334
I308
tp2149
a(F1444.4401084779327
I308
tp2150
a(F1417.9236296722427
I308
tp2151
a(F1472.138117432108
I308
tp2152
a(F1506.490558410226
I308
tp2153
a(F1437.0362638885904
I308
tp2154
a(F1458.4073949757317
I308
tp2155
a(F1545.2030458373947
I308
tp2156
a(F1495.3055484180197
I308
tp2157
a(F1529.2295305268733
I308
tp2158
a(F1550.873072922589
I308
tp2159
a(F1599.0896597241679
I308
tp2160
a(F1586.4119546557079
I308
tp2161
a(F1595.9169150247226
I308
tp2162
a(F914.8979659122541
I464
tp2163
a(F897.6021483474192
I464
tp2164
a(F951.4287640875345
I448
tp2165
a(F964.5324458681289
I448
tp2166
a(F935.046937204886
I448
tp2167
a(F975.468908507873
I448
tp2168
a(F995.5803445271114
I448
tp2169
a(F924.9473147161411
I448
tp2170
a(F741.4296025667945
I448
tp2171
a(F743.6127608401802
I448
tp2172
a(F745.5482482900452
I448
tp2173
a(F746.8330379183523
I448
tp2174
a(F741.1109172697127
I448
tp2175
a(F746.789764752005
I448
tp2176
a(F741.0996949860086
I448
tp2177
a(F745.2512393604958
I448
tp2178
a(F743.5041046385386
I448
tp2179
a(F973.5434156475934
I448
tp2180
a(F913.022575976685
I448
tp2181
a(F910.7105630613676
I464
tp2182
a(F912.0671457330511
I464
tp2183
a(F917.4530022450369
I464
tp2184
a(F945.5526509699005
I464
tp2185
a(F927.0251254365733
I464
tp2186
a(F863.4405923616437
I464
tp2187
a(F1139.7351496006224
I464
tp2188
a(F880.0259087560447
I464
tp2189
a(F1128.0030927016262
I464
tp2190
a(F857.0656074512066
I464
tp2191
a(F931.2997323997897
I464
tp2192
a(F1161.7044745375538
I464
tp2193
a(F1131.4748627243623
I464
tp2194
a(F1169.723761890893
I464
tp2195
a(F1154.8370293488238
I464
tp2196
a(F879.0226038675171
I464
tp2197
a(F831.2134457726909
I464
tp2198
a(F861.824124774711
I464
tp2199
a(F1172.895227003697
I308
tp2200
a(F1200.3048808512187
I308
tp2201
a(F1154.1504632374958
I308
tp2202
a(F1153.9669371385942
I308
tp2203
a(F1161.6795498749939
I308
tp2204
a(F1225.086832575961
I308
tp2205
a(F1175.6131912779992
I308
tp2206
a(F1243.361489683392
I308
tp2207
a(F1263.606670198523
I308
tp2208
a(F1292.957248813845
I308
tp2209
a(F1279.3633883079342
I308
tp2210
a(F1312.7350168554979
I308
tp2211
a(F1202.3820086968435
I308
tp2212
a(F1226.9095088870122
I308
tp2213
a(F1343.48932738359
I308
tp2214
a(F1365.2789188683557
I308
tp2215
a(F1380.1998012661788
I308
tp2216
a(F1398.6356388180882
I308
tp2217
a(F1443.0541971169882
I308
tp2218
a(F1251.1726085449905
I308
tp2219
a(F1261.2551763259598
I308
tp2220
a(F1339.4866878802914
I308
tp2221
a(F1276.0278709006548
I308
tp2222
a(F1327.9561188514333
I308
tp2223
a(F1357.4312986412397
I308
tp2224
a(F1477.2085600194127
I308
tp2225
a(F1385.3575328052643
I308
tp2226
a(F1324.893126564057
I308
tp2227
a(F1508.0695615116501
I308
tp2228
a(F1412.671339374609
I308
tp2229
a(F1430.2043394607858
I308
tp2230
a(F1536.2089016060822
I308
tp2231
a(F1565.706983041579
I308
tp2232
a(F1486.8981751680737
I308
tp2233
a(F1596.8274544235346
I308
tp2234
a(F1514.2682563829396
I308
tp2235
a(F1503.9229690877087
I308
tp2236
a(F1529.3287762404975
I308
tp2237
a(F1558.7666531540863
I308
tp2238
a(F1608.2752194417549
I308
tp2239
a(F858.3194739236762
I464
tp2240
a(F1535.237979988038
I308
tp2241
a(F996.9718079677241
I448
tp2242
a(F1000.581949289098
I448
tp2243
a(F1013.0481988221059
I448
tp2244
a(F986.6729356406431
I448
tp2245
a(F970.1082358131517
I448
tp2246
a(F958.8455295427078
I448
tp2247
a(F991.9497561022458
I448
tp2248
a(F990.997460933222
I448
tp2249
a(F748.4991125103868
I448
tp2250
a(F753.9319174062763
I448
tp2251
a(F744.7506613699982
I464
tp2252
a(F997.6803180681311
I448
tp2253
a(F758.8150142670365
I464
tp2254
a(F766.6997458305112
I464
tp2255
a(F938.2827475202976
I464
tp2256
a(F941.9043347965396
I464
tp2257
a(F960.6451641702622
I464
tp2258
a(F932.751924727203
I464
tp2259
a(F938.1285711000692
I464
tp2260
a(F867.4232080517969
I464
tp2261
a(F928.864153840236
I464
tp2262
a(F854.0193639582199
I464
tp2263
a(F871.2179967316849
I464
tp2264
a(F1150.656323742692
I464
tp2265
a(F868.1129057164555
I464
tp2266
a(F1142.3383486868725
I464
tp2267
a(F883.0586011563393
I464
tp2268
a(F903.7505114423063
I464
tp2269
a(F855.4628380484073
I464
tp2270
a(F896.0853656753258
I464
tp2271
a(F866.8489761379898
I464
tp2272
a(F850.0550758346772
I464
tp2273
a(F858.2855558448622
I464
tp2274
a(F1109.4203272863672
I308
tp2275
a(F1106.8020090351256
I308
tp2276
a(F1111.9498008948274
I308
tp2277
a(F1105.8661343950519
I308
tp2278
a(F1106.1378743904586
I308
tp2279
a(F1124.182890571193
I308
tp2280
a(F1126.26424750908
I308
tp2281
a(F1112.252847854768
I308
tp2282
a(F1114.4197897389722
I308
tp2283
a(F1134.0266592144974
I308
tp2284
a(F1153.1377213725243
I308
tp2285
a(F1145.0753160610082
I308
tp2286
a(F1139.7388865227936
I308
tp2287
a(F1137.0823868358077
I308
tp2288
a(F1142.8088205601346
I308
tp2289
a(F1115.6937518162656
I308
tp2290
a(F1170.2895445594625
I308
tp2291
a(F1159.3826452492697
I308
tp2292
a(F1176.5821605098583
I308
tp2293
a(F1117.8199007130113
I308
tp2294
a(F1119.1185864375796
I308
tp2295
a(F1187.2816581991092
I308
tp2296
a(F1123.4940332595695
I308
tp2297
a(F1189.4385767630952
I308
tp2298
a(F1124.8288415798445
I308
tp2299
a(F1194.7878363061127
I308
tp2300
a(F1197.038605399949
I308
tp2301
a(F1129.209311449849
I308
tp2302
a(F1199.7103026577765
I308
tp2303
a(F1130.579828736141
I308
tp2304
a(F1203.3591094150531
I308
tp2305
a(F1209.7687033449997
I308
tp2306
a(F1213.4386145360686
I308
tp2307
a(F1223.1501449581788
I308
tp2308
a(F1225.9324269147928
I308
tp2309
a(F1229.1749308817755
I308
tp2310
a(F1234.6610698295792
I308
tp2311
a(F1238.3825382130083
I308
tp2312
a(F1144.1882626600582
I308
tp2313
a(F1147.373501328162
I308
tp2314
a(F1148.833770233991
I308
tp2315
a(F1249.5463023998727
I308
tp2316
a(F1151.5611489104806
I308
tp2317
a(F1153.0393572502312
I308
tp2318
a(F1155.7145431101012
I308
tp2319
a(F1158.1103444270768
I308
tp2320
a(F1163.5189095585072
I308
tp2321
a(F1261.162829368722
I308
tp2322
a(F1165.8742719930026
I308
tp2323
a(F1262.5719628905595
I308
tp2324
a(F1265.3747196859752
I308
tp2325
a(F1168.943188299249
I308
tp2326
a(F1268.688563939175
I308
tp2327
a(F1170.3935859735504
I308
tp2328
a(F1280.1016929698765
I308
tp2329
a(F1172.801914659171
I308
tp2330
a(F1286.7695081642712
I308
tp2331
a(F1290.5651225328277
I308
tp2332
a(F1303.4747235885216
I308
tp2333
a(F1300.6031755190254
I308
tp2334
a(F1313.1008080297354
I308
tp2335
a(F1310.2137219493407
I308
tp2336
a(F1177.5994098555832
I308
tp2337
a(F1316.464346106712
I308
tp2338
a(F1319.370206140237
I308
tp2339
a(F1326.1546375229052
I308
tp2340
a(F1329.0423950762618
I308
tp2341
a(F1342.68079224855
I308
tp2342
a(F1348.515594520943
I308
tp2343
a(F1345.585587691163
I308
tp2344
a(F1351.9625307786162
I308
tp2345
a(F1355.8535534762493
I308
tp2346
a(F1357.3451176709607
I308
tp2347
a(F1362.7333188384086
I308
tp2348
a(F1369.6305770321135
I308
tp2349
a(F1372.5533710644406
I308
tp2350
a(F1376.0297999329478
I308
tp2351
a(F1197.6573909795848
I308
tp2352
a(F1378.9667937952843
I308
tp2353
a(F1200.456399889721
I308
tp2354
a(F1389.3565501591181
I308
tp2355
a(F1393.3334729964029
I308
tp2356
a(F1396.796854789574
I308
tp2357
a(F1205.5942165360589
I308
tp2358
a(F1399.7902862044527
I308
tp2359
a(F1403.2604505886184
I308
tp2360
a(F1214.1411464641144
I308
tp2361
a(F1216.7092054768839
I308
tp2362
a(F1222.4712090777543
I308
tp2363
a(F1225.0592822799301
I308
tp2364
a(F1227.9751043653134
I308
tp2365
a(F1230.577606255369
I308
tp2366
a(F1233.4593467228074
I308
tp2367
a(F1439.3256795243294
I308
tp2368
a(F1236.0758671174056
I308
tp2369
a(F1443.369083493319
I308
tp2370
a(F1239.0121788295812
I308
tp2371
a(F1241.6427700994427
I308
tp2372
a(F1455.5285937856074
I308
tp2373
a(F1459.0984102496973
I308
tp2374
a(F1256.2021894046522
I308
tp2375
a(F1258.9310519714156
I308
tp2376
a(F1468.2620608682885
I308
tp2377
a(F1471.852961473163
I308
tp2378
a(F1264.8202969913132
I308
tp2379
a(F1268.404401624735
I308
tp2380
a(F1484.1040771173564
I308
tp2381
a(F1486.7170683281242
I308
tp2382
a(F1495.9750235703043
I308
tp2383
a(F1289.0865017713288
I308
tp2384
a(F1368.3320049354
I308
tp2385
a(F1360.0159669366135
I308
tp2386
a(F1498.600195312294
I308
tp2387
a(F1357.8389211465255
I308
tp2388
a(F1291.8753254528297
I308
tp2389
a(F1377.8966071862967
I308
tp2390
a(F1375.1029215878743
I308
tp2391
a(F1501.7125707619098
I308
tp2392
a(F1357.2228637863216
I308
tp2393
a(F1383.7184054098745
I308
tp2394
a(F1380.9171772666332
I308
tp2395
a(F1352.9617772950278
I308
tp2396
a(F1297.8625670883623
I308
tp2397
a(F1504.3490815539515
I308
tp2398
a(F1386.7883509434105
I308
tp2399
a(F1352.3228924890852
I308
tp2400
a(F1507.4686722812253
I308
tp2401
a(F1393.6075983623655
I308
tp2402
a(F1350.239477776144
I308
tp2403
a(F1300.6039431234205
I308
tp2404
a(F1303.81875035421
I308
tp2405
a(F1397.5790268754654
I308
tp2406
a(F1349.6202059617958
I308
tp2407
a(F1346.9104221158734
I308
tp2408
a(F1306.8590404635054
I308
tp2409
a(F1404.4244244559206
I308
tp2410
a(F1310.7024798595776
I308
tp2411
a(F1512.771246178188
I308
tp2412
a(F1408.4536329823998
I308
tp2413
a(F1336.5929249889555
I308
tp2414
a(F1333.908669592822
I308
tp2415
a(F1418.1225989688523
I308
tp2416
a(F1415.2801739733984
I308
tp2417
a(F1514.4322773103816
I308
tp2418
a(F1316.7393653734932
I308
tp2419
a(F1421.214192477169
I308
tp2420
a(F1327.8549219665877
I308
tp2421
a(F1325.221460317819
I308
tp2422
a(F1424.6407683975494
I308
tp2423
a(F1323.2164097110954
I308
tp2424
a(F1517.1093071882858
I308
tp2425
a(F1427.7453143373357
I308
tp2426
a(F1518.7866635091711
I308
tp2427
a(F1434.6602973614326
I308
tp2428
a(F1440.5934038201663
I308
tp2429
a(F1437.7286323455385
I308
tp2430
a(F1519.4676569270923
I308
tp2431
a(F1443.703539781811
I308
tp2432
a(F1517.7297508701006
I308
tp2433
a(F1566.8736420782334
I308
tp2434
a(F1557.738092501916
I308
tp2435
a(F1555.2493352316637
I308
tp2436
a(F1503.3544844953294
I308
tp2437
a(F1569.9980513841558
I308
tp2438
a(F1573.6378443927922
I308
tp2439
a(F1502.5654583223682
I308
tp2440
a(F1555.9330836318823
I308
tp2441
a(F1500.1912834177285
I308
tp2442
a(F1498.4435943896947
I308
tp2443
a(F1492.5840597083663
I308
tp2444
a(F1579.9325808611366
I308
tp2445
a(F1557.6336027539396
I308
tp2446
a(F1583.5370855412134
I308
tp2447
a(F1586.7150012261866
I308
tp2448
a(F1560.3475682688559
I308
tp2449
a(F1563.5226343718832
I308
tp2450
a(F1597.5932836001214
I308
tp2451
a(F1572.0078055090314
I308
tp2452
a(F1607.1087110647547
I308
tp2453
a(F1573.738485224696
I308
tp2454
a(F1608.8048635145958
I308
tp2455
a(F1576.4811750785968
I308
tp2456
a(F1611.5285117386325
I308
tp2457
a(F1579.6302449149841
I308
tp2458
a(F1614.7289787060843
I308
tp2459
a(F1581.3793949366398
I308
tp2460
a(F1616.4436129878436
I308
tp2461
a(F1617.857383440057
I308
tp2462
a(F1616.9593005422778
I308
tp2463
a(F1617.687441332336
I308
tp2464
a(F1600.5061857131864
I308
tp2465
a(F1616.8504179794568
I308
tp2466
a(F1614.386592499508
I308
tp2467
a(F1611.3541929626065
I308
tp2468
a(F872.3597232897199
I464
tp2469
a(F1074.4311777119271
I448
tp2470
a(F1058.64443390261
I448
tp2471
a(F1078.0660320598802
I448
tp2472
a(F1066.4711901056378
I448
tp2473
a(F1019.8529666264275
I448
tp2474
a(F998.3887574160685
I448
tp2475
a(F1048.576710557588
I448
tp2476
a(F988.3967811816451
I448
tp2477
a(F977.2326802816252
I448
tp2478
a(F1011.1948392998414
I448
tp2479
a(F1009.2030974939566
I448
tp2480
a(F948.0248285875672
I448
tp2481
a(F934.8960687477044
I448
tp2482
a(F936.3354420403172
I448
tp2483
a(F934.1669841572428
I448
tp2484
a(F1005.0834142596182
I448
tp2485
a(F929.2679475938488
I448
tp2486
a(F762.8429425625163
I448
tp2487
a(F765.3710085974243
I448
tp2488
a(F761.1729756523405
I448
tp2489
a(F767.4912789885227
I448
tp2490
a(F1002.6739426679812
I448
tp2491
a(F759.9506815781951
I464
tp2492
a(F772.0031648854577
I464
tp2493
a(F758.6012855928753
I464
tp2494
a(F757.2845982516502
I464
tp2495
a(F776.0680697021128
I464
tp2496
a(F756.6421867601379
I464
tp2497
a(F776.7701413076866
I464
tp2498
a(F930.6475920746639
I448
tp2499
a(F756.6843189555095
I464
tp2500
a(F778.1667172484077
I464
tp2501
a(F758.0506222932366
I464
tp2502
a(F759.5005945956615
I464
tp2503
a(F760.9078397527281
I464
tp2504
a(F781.1480360963365
I464
tp2505
a(F764.9646548835857
I464
tp2506
a(F769.1222176801053
I464
tp2507
a(F771.1796658633858
I464
tp2508
a(F773.2839764893382
I464
tp2509
a(F780.0845763089816
I464
tp2510
a(F777.4382875310189
I464
tp2511
a(F794.3940844172766
I464
tp2512
a(F799.9856446694299
I464
tp2513
a(F986.9160302458886
I464
tp2514
a(F802.2001389498529
I464
tp2515
a(F793.1670779874587
I464
tp2516
a(F804.4824635299163
I464
tp2517
a(F792.6483770494729
I464
tp2518
a(F806.0742034906981
I464
tp2519
a(F975.0775183651845
I464
tp2520
a(F793.1727234185271
I464
tp2521
a(F806.755862050697
I464
tp2522
a(F796.396976379973
I464
tp2523
a(F804.7936067509255
I464
tp2524
a(F800.7411108536662
I464
tp2525
a(F943.0026461677992
I464
tp2526
a(F956.7267762467486
I464
tp2527
a(F1143.2401739554305
I464
tp2528
a(F949.1535914555774
I464
tp2529
a(F898.0229310090759
I464
tp2530
a(F1126.4474729074589
I464
tp2531
a(F879.2645649208449
I464
tp2532
a(F1122.7587172341007
I464
tp2533
a(F878.1575272046107
I464
tp2534
a(F855.8919380596521
I464
tp2535
a(F870.4551215115762
I464
tp2536
a(F870.5545395360971
I464
tp2537
a(F882.6499845493521
I464
tp2538
a(F884.3741043229116
I464
tp2539
a(F883.1845159763687
I464
tp2540
a(F862.4111292787971
I464
tp2541
a(F863.2557406299061
I464
tp2542
a(F873.5302299154638
I464
tp2543
a(F878.8030105314286
I464
tp2544
a(F871.813268962286
I464
tp2545
a(F1121.6590974362248
I448
tp2546
a(F1073.615397457813
I448
tp2547
a(F1126.9684221015864
I448
tp2548
a(F1048.624985322956
I448
tp2549
a(F1110.3418069306042
I448
tp2550
a(F1034.0206101045708
I448
tp2551
a(F1076.6850282484145
I448
tp2552
a(F1061.3057520473608
I448
tp2553
a(F1038.3330871496378
I448
tp2554
a(F998.2779245978388
I448
tp2555
a(F1034.9221080353798
I448
tp2556
a(F968.3898399836007
I448
tp2557
a(F961.6083179390698
I448
tp2558
a(F1008.6798534353485
I448
tp2559
a(F947.2367148803451
I448
tp2560
a(F1008.9975237669037
I448
tp2561
a(F938.7410029289574
I448
tp2562
a(F947.0800019217538
I448
tp2563
a(F1000.1411146110133
I448
tp2564
a(F960.0629353425978
I448
tp2565
a(F820.2192935100906
I464
tp2566
a(F814.9276765988135
I464
tp2567
a(F803.7147453990151
I464
tp2568
a(F825.0663776891884
I464
tp2569
a(F827.6809851339179
I464
tp2570
a(F949.1296956295652
I464
tp2571
a(F947.0691462073247
I464
tp2572
a(F952.8092852779464
I464
tp2573
a(F954.2189149916653
I464
tp2574
a(F887.8071409738061
I464
tp2575
a(F944.5126385792151
I464
tp2576
a(F874.7555404706236
I464
tp2577
a(F954.0275728719118
I464
tp2578
a(F946.6962088451982
I464
tp2579
a(F949.1853365670327
I464
tp2580
a(F952.2070879351145
I464
tp2581
a(F1036.721595954223
I464
tp2582
a(F1034.7499195611813
I464
tp2583
a(F1032.572605003576
I464
tp2584
a(F1042.9535818404725
I464
tp2585
a(F1030.8330869058634
I464
tp2586
a(F1028.8880316020159
I464
tp2587
a(F933.9482791812447
I464
tp2588
a(F1028.758483615018
I464
tp2589
a(F1047.2968942577224
I464
tp2590
a(F876.2745470017223
I464
tp2591
a(F1027.8472988999247
I464
tp2592
a(F1048.1824957944448
I464
tp2593
a(F1027.6385268798904
I464
tp2594
a(F1046.3463331908183
I464
tp2595
a(F1028.5721664987202
I464
tp2596
a(F895.3782928883234
I464
tp2597
a(F1030.070339982601
I464
tp2598
a(F1040.5872546422386
I464
tp2599
a(F1035.2830955520674
I464
tp2600
a(F1038.4472172892906
I464
tp2601
a(F930.4637065313094
I464
tp2602
a(F876.465373342358
I464
tp2603
a(F902.282971155509
I464
tp2604
a(F1118.3433754032449
I464
tp2605
a(F913.1830899709065
I464
tp2606
a(F877.6858219481641
I464
tp2607
a(F863.1232236653103
I464
tp2608
a(F899.2355025667274
I464
tp2609
a(F1152.382417613368
I448
tp2610
a(F1137.8562419455452
I448
tp2611
a(F1167.4886954686187
I448
tp2612
a(F1093.088264795132
I448
tp2613
a(F1080.0596119879522
I448
tp2614
a(F1123.3985522934097
I448
tp2615
a(F1034.549258241659
I448
tp2616
a(F1097.9467396717305
I448
tp2617
a(F1019.1265948709892
I448
tp2618
a(F1008.2865631763743
I448
tp2619
a(F1042.6576259702333
I448
tp2620
a(F995.7831943981903
I448
tp2621
a(F983.9825432040883
I448
tp2622
a(F1019.2218958026597
I448
tp2623
a(F976.7982423974705
I448
tp2624
a(F1012.8016420522979
I448
tp2625
a(F968.9545647481152
I448
tp2626
a(F963.3543477273673
I448
tp2627
a(F1004.1636955014143
I448
tp2628
a(F967.743504180967
I448
tp2629
a(F989.7353616323871
I448
tp2630
a(F980.0652216393852
I448
tp2631
a(F821.4963372035854
I464
tp2632
a(F835.4458872737968
I464
tp2633
a(F817.9006634694116
I464
tp2634
a(F829.4813177364382
I464
tp2635
a(F845.0094503241743
I464
tp2636
a(F856.6288876825229
I464
tp2637
a(F855.3603525646383
I464
tp2638
a(F880.2301910124304
I464
tp2639
a(F1140.5616298952082
I464
tp2640
a(F887.0179039862517
I464
tp2641
a(F875.1145536437691
I464
tp2642
a(F884.5548371091658
I464
tp2643
a(F1052.319185716476
I464
tp2644
a(F1121.1675058712904
I464
tp2645
a(F939.26046190909
I464
tp2646
a(F924.205011186404
I464
tp2647
a(F980.7128016479339
I464
tp2648
a(F924.707588118492
I464
tp2649
a(F1040.314045244687
I464
tp2650
a(F994.3703166851398
I464
tp2651
a(F1041.6182192387514
I464
tp2652
a(F1060.6615083245126
I464
tp2653
a(F1134.2287172455394
I464
tp2654
a(F1108.8860408961687
I464
tp2655
a(F888.1464498001011
I464
tp2656
a(F1060.7956030575149
I464
tp2657
a(F1082.0212184782004
I464
tp2658
a(F941.1845960376239
I464
tp2659
a(F939.9224561760419
I464
tp2660
a(F1102.5592675879893
I464
tp2661
a(F966.3731690521752
I464
tp2662
a(F1134.2382901171347
I464
tp2663
a(F1100.4329917586729
I464
tp2664
a(F1099.9495876094336
I464
tp2665
a(F1105.5297012256028
I464
tp2666
a(F1140.3395435242671
I464
tp2667
a(F885.7343796538069
I464
tp2668
a(F875.0854941574972
I464
tp2669
a(F889.8186634833618
I464
tp2670
a(F1181.5054050466101
I448
tp2671
a(F1165.190936339597
I448
tp2672
a(F1108.6865829775472
I448
tp2673
a(F1149.5487092779786
I448
tp2674
a(F1063.746798655352
I448
tp2675
a(F1108.9469387800652
I448
tp2676
a(F1047.3875156860083
I448
tp2677
a(F1031.79670243187
I448
tp2678
a(F1084.2958824089776
I448
tp2679
a(F1055.4754466571353
I448
tp2680
a(F1029.9746334092706
I448
tp2681
a(F1019.5317745666573
I448
tp2682
a(F1035.057958188709
I448
tp2683
a(F1026.9516049052704
I448
tp2684
a(F836.9645693906406
I464
tp2685
a(F835.1678986462904
I464
tp2686
a(F840.6315656643286
I464
tp2687
a(F834.8226488094704
I464
tp2688
a(F841.6267776201398
I464
tp2689
a(F843.8682741170333
I464
tp2690
a(F835.2679897693077
I464
tp2691
a(F834.9491306476464
I464
tp2692
a(F844.3230565543382
I464
tp2693
a(F835.9714435226005
I464
tp2694
a(F846.0254199699087
I464
tp2695
a(F836.4639945348874
I464
tp2696
a(F851.322517801133
I464
tp2697
a(F841.8034403786078
I464
tp2698
a(F851.8766278536232
I464
tp2699
a(F843.5701628431748
I464
tp2700
a(F848.0727764191352
I464
tp2701
a(F857.6571267734329
I464
tp2702
a(F848.7185598720346
I464
tp2703
a(F849.8831669631188
I464
tp2704
a(F850.560495940918
I464
tp2705
a(F862.3506024635574
I464
tp2706
a(F851.7484140702936
I464
tp2707
a(F863.0459555187431
I464
tp2708
a(F864.2572099515631
I464
tp2709
a(F853.1839663327366
I464
tp2710
a(F864.9834014137268
I464
tp2711
a(F854.408031342906
I464
tp2712
a(F866.2173447451052
I464
tp2713
a(F855.9419393622796
I464
tp2714
a(F857.2017307351055
I464
tp2715
a(F858.0084888526806
I464
tp2716
a(F870.1788822864298
I464
tp2717
a(F861.8846661771286
I464
tp2718
a(F870.1371864328407
I464
tp2719
a(F868.5473226757771
I464
tp2720
a(F866.7521216006687
I464
tp2721
a(F1067.1873540406518
I464
tp2722
a(F1076.2513016448293
I464
tp2723
a(F1096.2106355289595
I464
tp2724
a(F961.3125483112125
I464
tp2725
a(F1044.26612756469
I464
tp2726
a(F1022.8497055072462
I464
tp2727
a(F1053.0278153849652
I464
tp2728
a(F899.4570033388655
I464
tp2729
a(F1166.697015821632
I464
tp2730
a(F904.8390303913221
I464
tp2731
a(F895.7637483090703
I464
tp2732
a(F1091.2098435745156
I464
tp2733
a(F1101.1385612012318
I464
tp2734
a(F1129.30535094457
I464
tp2735
a(F885.2706227259142
I464
tp2736
a(F893.1522443560301
I464
tp2737
a(F895.8090949316824
I464
tp2738
a(F887.5103494548827
I464
tp2739
a(F897.2370715688959
I464
tp2740
a(F887.0178304559931
I464
tp2741
a(F896.1245399312562
I464
tp2742
a(F888.6171230146632
I464
tp2743
a(F894.2148079109742
I464
tp2744
a(F891.2620188643818
I464
tp2745
a(F893.6665607608991
I464
tp2746
a(F1198.3888663408225
I448
tp2747
a(F1232.6882251294621
I448
tp2748
a(F1196.5806098683026
I448
tp2749
a(F1192.7994424417084
I448
tp2750
a(F1100.5236625005673
I448
tp2751
a(F1149.5083696984382
I448
tp2752
a(F1139.6522822530385
I448
tp2753
a(F1068.7919223685326
I448
tp2754
a(F1098.2153822846608
I448
tp2755
a(F1074.7425017214919
I448
tp2756
a(F1067.1905878076525
I448
tp2757
a(F1062.6582210461288
I448
tp2758
a(F1150.5192439143675
I464
tp2759
a(F1137.0871775700627
I464
tp2760
a(F1109.1378245403266
I464
tp2761
a(F1075.4104291830379
I464
tp2762
a(F1013.9994644909378
I464
tp2763
a(F1052.0300273732325
I464
tp2764
a(F1061.9427786194947
I464
tp2765
a(F1035.983354453395
I464
tp2766
a(F1166.52485003954
I464
tp2767
a(F905.1274710172556
I464
tp2768
a(F901.705781246906
I464
tp2769
a(F907.934309290101
I464
tp2770
a(F901.8740222282117
I464
tp2771
a(F909.4222966268712
I464
tp2772
a(F981.00023987367
I464
tp2773
a(F1048.9008789268066
I464
tp2774
a(F1023.0850390166901
I464
tp2775
a(F958.508050430783
I464
tp2776
a(F904.1240354653188
I464
tp2777
a(F911.6624557028182
I464
tp2778
a(F946.6928357669276
I464
tp2779
a(F1077.2297288059756
I464
tp2780
a(F906.2967830198301
I464
tp2781
a(F911.8573732629972
I464
tp2782
a(F907.8216028097662
I464
tp2783
a(F910.4535120960833
I464
tp2784
a(F980.7960166754787
I464
tp2785
a(F1094.024275794964
I464
tp2786
a(F1072.2817711348837
I464
tp2787
a(F1232.369406292746
I448
tp2788
a(F1258.2994269105848
I448
tp2789
a(F1269.9771526729419
I448
tp2790
a(F1226.7138905129038
I448
tp2791
a(F1201.5556051055444
I448
tp2792
a(F1194.959522000848
I448
tp2793
a(F1259.6482178217632
I448
tp2794
a(F1155.0151275291428
I448
tp2795
a(F1216.83513742916
I448
tp2796
a(F1128.7179688633282
I448
tp2797
a(F1165.2447925945585
I448
tp2798
a(F1120.4786704119585
I448
tp2799
a(F1120.227200375712
I448
tp2800
a(F1167.79318653444
I464
tp2801
a(F1114.8208189537575
I464
tp2802
a(F1042.2174941849485
I464
tp2803
a(F1045.6961329127284
I464
tp2804
a(F978.5452673543396
I464
tp2805
a(F1109.5887330735995
I464
tp2806
a(F1010.6348846798878
I464
tp2807
a(F1157.1297438127317
I464
tp2808
a(F986.4819492288719
I464
tp2809
a(F1202.5054209122034
I464
tp2810
a(F1181.2801733293913
I464
tp2811
a(F1302.5819759661142
I448
tp2812
a(F1285.1748245194674
I448
tp2813
a(F1309.8080748711875
I448
tp2814
a(F1261.699405992456
I448
tp2815
a(F1292.9723970724624
I448
tp2816
a(F1245.2102002635406
I448
tp2817
a(F1267.7273416449189
I448
tp2818
a(F1177.2040833428014
I448
tp2819
a(F1236.5890860221064
I448
tp2820
a(F1211.4840779762135
I448
tp2821
a(F1169.1930199260094
I448
tp2822
a(F1180.0930197161729
I448
tp2823
a(F1184.4770809906024
I448
tp2824
a(F1169.102159099775
I464
tp2825
a(F1214.3076605310475
I464
tp2826
a(F1022.777819252156
I464
tp2827
a(F1106.9429365327458
I464
tp2828
a(F964.1395034422249
I464
tp2829
a(F1054.8454959496585
I464
tp2830
a(F1192.0247858181522
I464
tp2831
a(F986.0260429515555
I464
tp2832
a(F954.2279264041126
I464
tp2833
a(F971.429691893229
I464
tp2834
a(F1223.3590714616244
I464
tp2835
a(F1224.577828081002
I464
tp2836
a(F1944.9580760441686
I80
tp2837
a(F1940.7110608263854
I80
tp2838
a(F1948.4708969366093
I80
tp2839
a(F1951.4256636932894
I80
tp2840
a(F1943.3233917742034
I80
tp2841
a(F1953.141238387228
I80
tp2842
a(F1945.0461128684829
I80
tp2843
a(F1950.6614870704245
I80
tp2844
a(F1947.9661458320572
I80
tp2845
a(F1953.96508300785
I80
tp2846
a(F1009.0254777770298
I464
tp2847
a(F1344.1893956040744
I448
tp2848
a(F1322.8809126315236
I448
tp2849
a(F1301.7155438707123
I448
tp2850
a(F1342.172127117413
I448
tp2851
a(F1290.1326738359587
I448
tp2852
a(F1225.7681778945532
I448
tp2853
a(F1220.023788990806
I448
tp2854
a(F1221.38770998543
I448
tp2855
a(F1241.1715863979966
I448
tp2856
a(F1220.6315960766121
I464
tp2857
a(F1132.582718037266
I464
tp2858
a(F1212.0152155693675
I464
tp2859
a(F1061.4516420789193
I464
tp2860
a(F1097.008526327122
I464
tp2861
a(F1145.4152750784226
I464
tp2862
a(F1055.9343150694142
I464
tp2863
a(F968.5028761485042
I464
tp2864
a(F1012.71179681584
I464
tp2865
a(F1036.0227711414022
I464
tp2866
a(F1196.782724315099
I464
tp2867
a(F983.8697724893083
I464
tp2868
a(F1055.2859790092875
I464
tp2869
a(F979.39520980928
I464
tp2870
a(F1967.804690347829
I80
tp2871
a(F1960.2934232121752
I80
tp2872
a(F1975.955636260759
I80
tp2873
a(F1969.4946762499408
I80
tp2874
a(F1977.6742028551269
I80
tp2875
a(F1390.3887076797575
I448
tp2876
a(F1404.2588439864307
I448
tp2877
a(F1401.7247403867295
I448
tp2878
a(F1355.3402573784497
I448
tp2879
a(F1400.737009786337
I448
tp2880
a(F1338.2568996707244
I448
tp2881
a(F1375.821317079312
I448
tp2882
a(F1304.0177662542671
I448
tp2883
a(F1354.3436442545292
I448
tp2884
a(F1284.943674650316
I448
tp2885
a(F1271.1007085888907
I448
tp2886
a(F1320.6808712421468
I448
tp2887
a(F1312.76942025563
I448
tp2888
a(F1250.0839187389618
I448
tp2889
a(F1255.0816771438995
I448
tp2890
a(F1270.8545706588552
I448
tp2891
a(F1172.7863120263269
I464
tp2892
a(F1228.0512799994956
I464
tp2893
a(F1187.424614032379
I464
tp2894
a(F1056.8218410061775
I464
tp2895
a(F1161.6161120786542
I464
tp2896
a(F1171.943398765867
I464
tp2897
a(F981.042713484972
I464
tp2898
a(F965.4014684194256
I464
tp2899
a(F1196.689264832265
I464
tp2900
a(F1099.5722550631126
I464
tp2901
a(F1117.4093688019
I464
tp2902
a(F1237.9599921086117
I464
tp2903
a(F1317.483965579836
I159
tp2904
a(F1320.8941729222558
I159
tp2905
a(F1323.0231736118496
I159
tp2906
a(F1336.9203356647586
I159
tp2907
a(F1339.0992815202205
I159
tp2908
a(F1340.8652408120552
I159
tp2909
a(F1343.055656282334
I159
tp2910
a(F1344.8320356542563
I159
tp2911
a(F1307.291294069524
I159
tp2912
a(F1353.6752976759126
I159
tp2913
a(F1355.4775984087566
I159
tp2914
a(F1312.614433982794
I159
tp2915
a(F1357.7085186600143
I159
tp2916
a(F1314.7507574266579
I159
tp2917
a(F1316.5410219222076
I159
tp2918
a(F1363.0402094428362
I159
tp2919
a(F1318.6891840983494
I159
tp2920
a(F1367.5461294837446
I159
tp2921
a(F1370.237027570037
I159
tp2922
a(F1372.4660659921508
I159
tp2923
a(F1324.1069779319082
I159
tp2924
a(F1374.7392495138745
I159
tp2925
a(F1329.167212928445
I159
tp2926
a(F1379.2248494375276
I159
tp2927
a(F1381.9494494242438
I159
tp2928
a(F1384.207307934751
I159
tp2929
a(F1386.5074010599333
I159
tp2930
a(F1334.6638545618782
I159
tp2931
a(F1388.7758508016946
I159
tp2932
a(F1336.864430870973
I159
tp2933
a(F1338.8504494737158
I159
tp2934
a(F1393.402370989073
I159
tp2935
a(F1395.6861244756897
I159
tp2936
a(F1340.7040069702077
I159
tp2937
a(F1397.5694853222758
I159
tp2938
a(F1399.9004850909835
I159
tp2939
a(F1344.715313128385
I159
tp2940
a(F1346.5860468651717
I159
tp2941
a(F1403.6904162449675
I159
tp2942
a(F1348.6111378525577
I159
tp2943
a(F1405.7280770981174
I159
tp2944
a(F1349.779360555632
I159
tp2945
a(F1406.3163065896558
I159
tp2946
a(F1350.599292765982
I159
tp2947
a(F1403.859795845002
I159
tp2948
a(F1402.1275091709635
I159
tp2949
a(F1351.7813324136307
I159
tp2950
a(F1401.329538703859
I159
tp2951
a(F1401.0349406763453
I159
tp2952
a(F1352.2665064609012
I159
tp2953
a(F1400.2513449613145
I159
tp2954
a(F1354.6665075139235
I159
tp2955
a(F1356.5729080406886
I159
tp2956
a(F1403.483092948387
I159
tp2957
a(F1358.656716892818
I159
tp2958
a(F1405.5001998292175
I159
tp2959
a(F1413.2889459413352
I159
tp2960
a(F1415.6703523680824
I159
tp2961
a(F1417.9683131685174
I159
tp2962
a(F1420.359475275175
I159
tp2963
a(F1372.172376965799
I159
tp2964
a(F1422.329690069771
I159
tp2965
a(F1374.472238338036
I159
tp2966
a(F1427.1361360998364
I159
tp2967
a(F1378.3843261086404
I159
tp2968
a(F1405.0503220966752
I159
tp2969
a(F1401.9118584247622
I159
tp2970
a(F1429.456239812178
I159
tp2971
a(F1400.6422480176623
I159
tp2972
a(F1380.699189655723
I159
tp2973
a(F1410.6058479639062
I159
tp2974
a(F1431.8715177668598
I159
tp2975
a(F1412.863209545061
I159
tp2976
a(F1414.598365112858
I159
tp2977
a(F1400.4647674382852
I159
tp2978
a(F1434.7219726657743
I159
tp2979
a(F1416.8663046159193
I159
tp2980
a(F1384.2859080450003
I159
tp2981
a(F1418.611367094586
I159
tp2982
a(F1437.1478840759466
I159
tp2983
a(F1439.4879753856821
I159
tp2984
a(F1402.1525664891003
I159
tp2985
a(F1423.1737040860369
I159
tp2986
a(F1424.9334993942598
I159
tp2987
a(F1441.4903189164922
I159
tp2988
a(F1402.6331500239007
I159
tp2989
a(F1427.3459214745285
I159
tp2990
a(F1391.2886762904277
I159
tp2991
a(F1443.9297910161597
I159
tp2992
a(F1429.6447006602623
I159
tp2993
a(F1445.6019740260354
I159
tp2994
a(F1432.0666436936413
I159
tp2995
a(F1395.2725888778762
I159
tp2996
a(F1434.3752865118565
I159
tp2997
a(F1405.261589833
I159
tp2998
a(F1447.7151262717298
I159
tp2999
a(F1436.80665519407
I159
tp3000
a(F1357.3375566187658
I159
tp3001
a(F1352.0685517265022
I159
tp3002
a(F1351.8436115235825
I159
tp3003
a(F1448.0148551275192
I159
tp3004
a(F1399.9862145685472
I159
tp3005
a(F1447.2615329441912
I159
tp3006
a(F1441.4487661939188
I159
tp3007
a(F1408.3416782961338
I159
tp3008
a(F1362.8907465207185
I159
tp3009
a(F1446.843738156948
I159
tp3010
a(F1444.3135535679123
I159
tp3011
a(F1365.1732784229152
I159
tp3012
a(F1353.533731217649
I159
tp3013
a(F1446.1119343653763
I159
tp3014
a(F1410.5361754857515
I159
tp3015
a(F1404.0052768711273
I159
tp3016
a(F1411.8196143261257
I159
tp3017
a(F1368.2017302714123
I159
tp3018
a(F1355.502669281653
I159
tp3019
a(F1356.388065158358
I159
tp3020
a(F1408.7578291494854
I159
tp3021
a(F1370.4809353820601
I159
tp3022
a(F1416.2452691719648
I159
tp3023
a(F1372.3767769505062
I159
tp3024
a(F1412.8113949462506
I159
tp3025
a(F1361.104979396174
I159
tp3026
a(F1415.0441891396786
I159
tp3027
a(F1417.0824836501122
I159
tp3028
a(F1374.7726020520847
I159
tp3029
a(F1363.4312540297217
I159
tp3030
a(F1375.2500527631776
I159
tp3031
a(F1419.3282865482429
I159
tp3032
a(F1374.6248314212141
I159
tp3033
a(F1373.574261680744
I159
tp3034
a(F1373.350511533426
I159
tp3035
a(F1372.3222845677042
I159
tp3036
a(F1420.6600951803955
I159
tp3037
a(F1423.3782956557861
I159
tp3038
a(F1425.1874070079243
I159
tp3039
a(F1426.537579643793
I159
tp3040
a(F1427.5396994738783
I159
tp3041
a(F1428.9023460740661
I159
tp3042
a(F1429.9195928631689
I159
tp3043
a(F1435.4537004800854
I159
tp3044
a(F1436.5059880348465
I159
tp3045
a(F1437.9102109318128
I159
tp3046
a(F1438.9773806908747
I159
tp3047
a(F1439.1255438953096
I159
tp3048
a(F1450.6303090225688
I105
tp3049
a(F1441.2401135601638
I105
tp3050
a(F1452.405284468806
I105
tp3051
a(F1443.7901078366322
I105
tp3052
a(F1454.5317998726991
I105
tp3053
a(F1445.722635896289
I105
tp3054
a(F1456.1786724783856
I105
tp3055
a(F1447.872779781053
I105
tp3056
a(F1457.0544146986801
I105
tp3057
a(F1457.4480201560923
I105
tp3058
a(F1449.8150402333788
I105
tp3059
a(F1451.978408026412
I105
tp3060
a(F1459.3313135915757
I105
tp3061
a(F1453.9303153283906
I105
tp3062
a(F1459.4966775491177
I105
tp3063
a(F1456.1449865866723
I87
tp3064
a(F1459.0028516351501
I87
tp3065
a(F1457.6364660557515
I87
tp3066
a(F1990.1711559783632
I80
tp3067
a(F1989.7117854440166
I80
tp3068
a(F2009.4663646435279
I80
tp3069
a(F1946.1926130679499
I80
tp3070
a(F1941.1896928163035
I80
tp3071
a(F1949.3205578487637
I80
tp3072
a(F1940.7689487090165
I80
tp3073
a(F1952.2840624170894
I80
tp3074
a(F1937.0945630977171
I80
tp3075
a(F1934.6174232686772
I80
tp3076
a(F1957.5441846845385
I80
tp3077
a(F1955.0302051784915
I80
tp3078
a(F1930.1662583415591
I80
tp3079
a(F1960.2947369748192
I80
tp3080
a(F1963.8932046219456
I80
tp3081
a(F1928.9772700442415
I80
tp3082
a(F1965.8176658399057
I80
tp3083
a(F1968.5837437821067
I80
tp3084
a(F1931.281158875583
I80
tp3085
a(F1970.5198635007907
I80
tp3086
a(F1933.2573266867023
I80
tp3087
a(F1971.628470029852
I80
tp3088
a(F1973.5778170622648
I80
tp3089
a(F1938.8497082412898
I80
tp3090
a(F1972.506600412849
I80
tp3091
a(F1970.661152865153
I80
tp3092
a(F1968.1801867663985
I80
tp3093
a(F1952.5865181987033
I80
tp3094
a(F1947.7040657295283
I80
tp3095
a(F1967.0415525210074
I80
tp3096
a(F1958.8324195907558
I80
tp3097
a(F1968.2071789564673
I80
tp3098
a(F1964.7480258811345
I80
tp3099
a(F1967.8572968196095
I80
tp3100
a(F2462.6601452016
I35
tp3101
a(F2460.0672610716083
I35
tp3102
a(F2465.9459030658677
I35
tp3103
a(F2460.472893697617
I35
tp3104
a(F2468.0692517867765
I35
tp3105
a(F2469.505116675073
I35
tp3106
a(F2462.6053469845156
I35
tp3107
a(F2470.7746873454744
I35
tp3108
a(F2465.601085310259
I35
tp3109
a(F2468.880612594724
I35
tp3110
a(F1455.4046175448914
I448
tp3111
a(F1461.989266003085
I448
tp3112
a(F1430.1024140852262
I448
tp3113
a(F1406.3474800980032
I448
tp3114
a(F1441.9495848588165
I448
tp3115
a(F1379.1151081007943
I448
tp3116
a(F1326.3340241644955
I448
tp3117
a(F1369.9674482432983
I448
tp3118
a(F1305.6877728088318
I448
tp3119
a(F1333.8021585033925
I448
tp3120
a(F1303.9965263775434
I448
tp3121
a(F1189.3113297072775
I464
tp3122
a(F1187.351324370379
I464
tp3123
a(F1194.3699684746318
I464
tp3124
a(F1196.5012365225925
I464
tp3125
a(F1199.0380729201609
I464
tp3126
a(F1087.0785073962293
I464
tp3127
a(F1112.845616788225
I464
tp3128
a(F1205.8793233214064
I464
tp3129
a(F1190.48654194665
I464
tp3130
a(F1221.3502868343674
I464
tp3131
a(F1193.2226270944132
I464
tp3132
a(F1196.333470638556
I464
tp3133
a(F1198.873164384829
I464
tp3134
a(F1201.9926786141807
I464
tp3135
a(F1091.4917301409566
I464
tp3136
a(F1130.3345483654577
I464
tp3137
a(F1084.895880465591
I464
tp3138
a(F994.6630539533022
I464
tp3139
a(F1244.4200944117486
I464
tp3140
a(F1220.3492463761124
I464
tp3141
a(F1126.947106219317
I464
tp3142
a(F1157.2955593538293
I464
tp3143
a(F1155.2661166467633
I464
tp3144
a(F1159.7922671806762
I464
tp3145
a(F983.6300290485245
I464
tp3146
a(F997.6316426005202
I464
tp3147
a(F1153.4762801142003
I464
tp3148
a(F1162.5248961919451
I464
tp3149
a(F1260.262814772186
I464
tp3150
a(F1165.0284226481742
I464
tp3151
a(F1167.2466804339574
I464
tp3152
a(F1085.9964916355061
I464
tp3153
a(F1153.3994975107682
I464
tp3154
a(F1172.2691651698822
I464
tp3155
a(F1105.3996710103388
I464
tp3156
a(F1175.0221388816863
I464
tp3157
a(F1154.3665625034766
I464
tp3158
a(F1180.0640700767449
I464
tp3159
a(F1158.8387875101923
I464
tp3160
a(F1189.6195051032464
I464
tp3161
a(F1192.4003514659382
I464
tp3162
a(F1194.665721271893
I464
tp3163
a(F1169.8578804513363
I464
tp3164
a(F1195.656282277684
I464
tp3165
a(F1179.9304325688413
I464
tp3166
a(F1182.710385917065
I464
tp3167
a(F1184.2347995951195
I464
tp3168
a(F1195.6390832613715
I464
tp3169
a(F1186.5233448938511
I464
tp3170
a(F1189.0570799125217
I464
tp3171
a(F1192.0949100009163
I464
tp3172
a(F1338.1033842622094
I159
tp3173
a(F1362.3188294632814
I159
tp3174
a(F1323.72074578744
I159
tp3175
a(F1333.2311283977672
I159
tp3176
a(F1389.5136930558688
I159
tp3177
a(F1423.6910550642847
I159
tp3178
a(F1370.3772193240384
I159
tp3179
a(F1439.556664793733
I159
tp3180
a(F1386.6477308822084
I159
tp3181
a(F1415.2629828528402
I159
tp3182
a(F1440.3399493385045
I159
tp3183
a(F1408.4520285740196
I159
tp3184
a(F1456.3893194589966
I159
tp3185
a(F1411.5912054826838
I159
tp3186
a(F1406.6174197053213
I159
tp3187
a(F1385.2646448136425
I159
tp3188
a(F1370.7696018770296
I159
tp3189
a(F1477.786306965938
I159
tp3190
a(F1399.737716468291
I159
tp3191
a(F1394.807360434045
I159
tp3192
a(F1386.4172539482322
I159
tp3193
a(F1484.0072763732148
I159
tp3194
a(F1505.3616875829111
I159
tp3195
a(F1500.8189090396859
I159
tp3196
a(F1542.5009247760388
I105
tp3197
a(F1524.3083721139712
I105
tp3198
a(F1579.450495453533
I105
tp3199
a(F1549.2197371576215
I105
tp3200
a(F1597.1540816983254
I105
tp3201
a(F1616.3619877840554
I105
tp3202
a(F1575.9132583309538
I105
tp3203
a(F1595.5843636890916
I80
tp3204
a(F1622.3700724165951
I80
tp3205
a(F1640.261799731226
I80
tp3206
a(F1655.8087409136267
I80
tp3207
a(F1636.209614096859
I80
tp3208
a(F1665.6704111228764
I80
tp3209
a(F1672.9808026711617
I80
tp3210
a(F1678.9757619923055
I80
tp3211
a(F1660.8162897906846
I80
tp3212
a(F1701.641678267539
I80
tp3213
a(F1677.8385032791402
I80
tp3214
a(F1720.0428511770463
I80
tp3215
a(F1686.0541357837237
I80
tp3216
a(F1706.2455777335051
I80
tp3217
a(F2011.320028306163
I80
tp3218
a(F1721.8422345374731
I80
tp3219
a(F1738.47566354098
I80
tp3220
a(F1998.625967143288
I80
tp3221
a(F1733.4792740215394
I80
tp3222
a(F1743.1623137276304
I80
tp3223
a(F2029.1508961717495
I80
tp3224
a(F2003.823894011748
I80
tp3225
a(F2003.3714630024285
I80
tp3226
a(F1954.9509582069134
I80
tp3227
a(F1951.5588966089929
I80
tp3228
a(F1967.1020591271322
I80
tp3229
a(F1978.8103233467145
I80
tp3230
a(F1943.9581198485512
I80
tp3231
a(F1985.7626091541931
I80
tp3232
a(F1954.6770817418324
I80
tp3233
a(F1991.1830471194053
I80
tp3234
a(F1988.2589378239722
I80
tp3235
a(F1979.5470959729896
I80
tp3236
a(F2483.0940716479927
I35
tp3237
a(F2491.516714962402
I35
tp3238
a(F1520.0583818803632
I448
tp3239
a(F1483.4033815957316
I448
tp3240
a(F1517.780020127114
I448
tp3241
a(F1442.9249747298097
I448
tp3242
a(F1491.9181055467407
I448
tp3243
a(F1411.0229051418792
I448
tp3244
a(F1354.7745907432363
I448
tp3245
a(F1345.567786268124
I448
tp3246
a(F1352.096910043855
I448
tp3247
a(F1259.564078191343
I464
tp3248
a(F1270.5531000000892
I464
tp3249
a(F1123.090276301625
I464
tp3250
a(F1120.3933119691765
I464
tp3251
a(F1118.6549521721433
I464
tp3252
a(F1132.7630528805485
I464
tp3253
a(F1275.727947067833
I464
tp3254
a(F1118.6028509061025
I464
tp3255
a(F1138.067746875932
I464
tp3256
a(F1264.8193102895098
I464
tp3257
a(F1117.8346882707033
I464
tp3258
a(F1140.5030853931348
I464
tp3259
a(F1117.8013358093915
I464
tp3260
a(F1141.9174626071974
I464
tp3261
a(F995.1649311703363
I464
tp3262
a(F1000.2341278677009
I464
tp3263
a(F1119.2238515834356
I464
tp3264
a(F992.4488386104647
I464
tp3265
a(F1006.2761235035144
I464
tp3266
a(F1127.167300676905
I464
tp3267
a(F1148.4164112486637
I464
tp3268
a(F1133.9618678629631
I464
tp3269
a(F1132.010735964664
I464
tp3270
a(F1151.1013356256956
I464
tp3271
a(F1141.2628057127158
I464
tp3272
a(F1147.144220237046
I464
tp3273
a(F993.0161153613069
I464
tp3274
a(F1008.4280620199243
I464
tp3275
a(F1007.0654818745702
I464
tp3276
a(F995.9344419183726
I464
tp3277
a(F1007.2598080035062
I464
tp3278
a(F998.3713957507298
I464
tp3279
a(F1005.9175161678319
I464
tp3280
a(F1234.2391364412572
I464
tp3281
a(F1237.3438410899616
I464
tp3282
a(F1002.6981731694041
I464
tp3283
a(F1242.4660815117893
I464
tp3284
a(F1244.7118345678489
I464
tp3285
a(F1230.4434724875664
I464
tp3286
a(F1247.7429712521966
I464
tp3287
a(F1209.9125992205343
I464
tp3288
a(F1228.6003693232637
I464
tp3289
a(F1195.3762388002556
I464
tp3290
a(F1249.222448535592
I464
tp3291
a(F1228.5439770465118
I464
tp3292
a(F1197.4984376145383
I464
tp3293
a(F1216.5061047274937
I464
tp3294
a(F1225.014769448622
I464
tp3295
a(F1228.7836438849845
I464
tp3296
a(F1251.4872405786887
I464
tp3297
a(F1229.5072441044258
I464
tp3298
a(F1231.0070133517763
I464
tp3299
a(F1205.3595127171523
I464
tp3300
a(F1214.7659213785648
I464
tp3301
a(F1233.282552510681
I464
tp3302
a(F1253.4033001660957
I464
tp3303
a(F1236.3344310999594
I464
tp3304
a(F1237.8525878065047
I464
tp3305
a(F1253.3182775892403
I464
tp3306
a(F1240.6655715353997
I464
tp3307
a(F1251.4872885703874
I464
tp3308
a(F1243.2305303946086
I464
tp3309
a(F1249.4131510534296
I464
tp3310
a(F1362.559595633516
I159
tp3311
a(F1395.3807606223927
I159
tp3312
a(F1337.6041257447525
I159
tp3313
a(F1414.892794456451
I159
tp3314
a(F1353.7371926666212
I159
tp3315
a(F1424.639735861574
I159
tp3316
a(F1351.6032937175812
I159
tp3317
a(F1441.6376906834962
I159
tp3318
a(F1366.6581304415843
I159
tp3319
a(F1378.344222426036
I159
tp3320
a(F1392.5977628380685
I159
tp3321
a(F1459.220774978142
I159
tp3322
a(F1398.9260928525064
I159
tp3323
a(F1389.1303485368544
I159
tp3324
a(F1373.7692866919408
I159
tp3325
a(F1394.763243554055
I159
tp3326
a(F1370.0901251849432
I159
tp3327
a(F1451.75664747355
I159
tp3328
a(F1550.6028547401916
I159
tp3329
a(F1611.2142353344254
I105
tp3330
a(F1550.586168279513
I105
tp3331
a(F1638.4468443743513
I105
tp3332
a(F1596.0015857592628
I105
tp3333
a(F1670.5701393499933
I80
tp3334
a(F1640.9061951490137
I80
tp3335
a(F1716.8684405015042
I80
tp3336
a(F1694.8522001806434
I80
tp3337
a(F1741.9403440951621
I80
tp3338
a(F1761.6353346941225
I80
tp3339
a(F1943.7831641823748
I80
tp3340
a(F1780.7911530055346
I80
tp3341
a(F2052.9085498035606
I80
tp3342
a(F2025.3955465197855
I80
tp3343
a(F1938.764382990516
I80
tp3344
a(F2009.5584508887696
I80
tp3345
a(F1725.5881843937377
I80
tp3346
a(F1784.4302631450996
I80
tp3347
a(F2054.3503143710345
I80
tp3348
a(F2000.687726352413
I80
tp3349
a(F1975.638178723139
I80
tp3350
a(F2044.008938102468
I80
tp3351
a(F2030.6159756446843
I80
tp3352
a(F1781.4842278633753
I80
tp3353
a(F1939.340656943469
I80
tp3354
a(F2004.2843020708344
I80
tp3355
a(F2049.8700024955547
I80
tp3356
a(F1755.981341075847
I80
tp3357
a(F2016.643976112647
I80
tp3358
a(F2002.155578500235
I80
tp3359
a(F1796.8710037667743
I80
tp3360
a(F1928.5343444547434
I80
tp3361
a(F1941.985623758133
I80
tp3362
a(F1786.7082078072042
I80
tp3363
a(F1942.7466743852328
I80
tp3364
a(F2010.8509801936252
I80
tp3365
a(F2024.1452873822864
I80
tp3366
a(F2023.3677366695977
I80
tp3367
a(F2474.7124048979895
I35
tp3368
a(F2474.442967602949
I35
tp3369
a(F1564.6613088105094
I448
tp3370
a(F1542.2057195628663
I448
tp3371
a(F1493.4924713575513
I448
tp3372
a(F1554.0945259745615
I448
tp3373
a(F1521.9026300288424
I448
tp3374
a(F1427.9283764375414
I448
tp3375
a(F1495.8423644088098
I448
tp3376
a(F1453.7765437724927
I448
tp3377
a(F1400.9659870100525
I448
tp3378
a(F1439.349207639246
I448
tp3379
a(F1398.46894978987
I448
tp3380
a(F1292.698350159017
I464
tp3381
a(F1315.9831222765758
I464
tp3382
a(F1314.7127036493916
I464
tp3383
a(F1237.1431315090815
I464
tp3384
a(F1282.1004135679034
I464
tp3385
a(F1298.6491473431752
I464
tp3386
a(F1240.8575310236279
I464
tp3387
a(F1241.5936599021006
I464
tp3388
a(F1253.9700781713625
I464
tp3389
a(F1236.4263300824246
I464
tp3390
a(F1239.5029668706295
I464
tp3391
a(F1230.1952834558801
I464
tp3392
a(F1267.5148114712872
I464
tp3393
a(F1324.4702451089993
I464
tp3394
a(F1327.6772820753893
I464
tp3395
a(F1228.3542501864406
I464
tp3396
a(F1270.0767254820053
I464
tp3397
a(F1273.2039992754865
I464
tp3398
a(F1320.0905299725064
I464
tp3399
a(F1330.5047901428588
I464
tp3400
a(F1278.342131979969
I464
tp3401
a(F1284.6235544762103
I464
tp3402
a(F1289.3471136412772
I464
tp3403
a(F1227.5130207851537
I464
tp3404
a(F1287.202691120203
I464
tp3405
a(F1291.930753085123
I464
tp3406
a(F1295.0886479029507
I464
tp3407
a(F1297.6778094885854
I464
tp3408
a(F1304.0133310511412
I464
tp3409
a(F1311.9583093448864
I464
tp3410
a(F1331.9418907028537
I464
tp3411
a(F1306.610829157287
I464
tp3412
a(F1223.8715918040964
I464
tp3413
a(F1331.7802507339914
I464
tp3414
a(F1223.81661586248
I464
tp3415
a(F1225.2874409203307
I464
tp3416
a(F1275.3349596192731
I464
tp3417
a(F1291.0022986141785
I464
tp3418
a(F1329.8784684087086
I464
tp3419
a(F1298.769498010749
I464
tp3420
a(F1301.9261669246428
I464
tp3421
a(F1266.9216287975719
I464
tp3422
a(F1265.064481372034
I464
tp3423
a(F1309.7247871438842
I464
tp3424
a(F1312.8947228239945
I464
tp3425
a(F1320.8392752788254
I464
tp3426
a(F1324.0248963970023
I464
tp3427
a(F1262.9778028932626
I464
tp3428
a(F1315.5020503712994
I464
tp3429
a(F1318.6793316387016
I464
tp3430
a(F1232.0162641357836
I464
tp3431
a(F1234.5416827337556
I464
tp3432
a(F1259.2975770758446
I464
tp3433
a(F1237.3153186076268
I464
tp3434
a(F1240.3639517581494
I464
tp3435
a(F1254.1489708328486
I464
tp3436
a(F1257.2267799411104
I464
tp3437
a(F1242.8989597441512
I464
tp3438
a(F1252.0872292348856
I464
tp3439
a(F1377.321604247191
I159
tp3440
a(F1348.2507955364824
I159
tp3441
a(F1365.3123710818616
I159
tp3442
a(F1376.3706899800388
I159
tp3443
a(F1435.163485841163
I159
tp3444
a(F1385.768617082209
I159
tp3445
a(F1409.6990266602306
I159
tp3446
a(F1388.3026300729155
I159
tp3447
a(F1399.8394577924714
I159
tp3448
a(F1394.0837103012518
I159
tp3449
a(F1436.3085934194569
I159
tp3450
a(F1399.363417782196
I159
tp3451
a(F1405.6073947094067
I159
tp3452
a(F1487.7633943963117
I159
tp3453
a(F1470.4015819478664
I159
tp3454
a(F1408.3428005886485
I159
tp3455
a(F1407.1265492122789
I159
tp3456
a(F1522.4855059596223
I159
tp3457
a(F1555.0633470965417
I159
tp3458
a(F1508.6148560024503
I159
tp3459
a(F1530.5438600409282
I159
tp3460
a(F1576.4727606065444
I105
tp3461
a(F1612.5183421145891
I105
tp3462
a(F1621.887588363253
I80
tp3463
a(F1689.3361331215401
I105
tp3464
a(F1717.3240744853028
I80
tp3465
a(F1652.8983150929841
I80
tp3466
a(F1678.6620438690486
I80
tp3467
a(F1729.8019561644307
I80
tp3468
a(F1944.6164617936913
I80
tp3469
a(F1811.0973689040695
I80
tp3470
a(F1947.1934547004837
I80
tp3471
a(F2078.9787832304055
I80
tp3472
a(F2052.9734433809053
I80
tp3473
a(F2038.0717020202533
I80
tp3474
a(F1975.4612815223325
I80
tp3475
a(F1832.5334382438923
I80
tp3476
a(F1997.1476315436344
I80
tp3477
a(F2011.6047706768234
I80
tp3478
a(F1966.4671862961561
I80
tp3479
a(F2086.2863248810877
I80
tp3480
a(F1948.3553978765003
I80
tp3481
a(F1962.58533199244
I80
tp3482
a(F1760.4244920759
I80
tp3483
a(F1835.3052976013444
I80
tp3484
a(F1932.5513575292075
I80
tp3485
a(F2095.9071087546986
I80
tp3486
a(F2080.1935671431756
I80
tp3487
a(F1933.57309592522
I80
tp3488
a(F1840.799428443266
I80
tp3489
a(F2074.1900534188726
I80
tp3490
a(F2050.8940869821167
I80
tp3491
a(F1949.8896613063014
I80
tp3492
a(F1970.9189617621255
I80
tp3493
a(F2087.962412702666
I80
tp3494
a(F1982.2599259679268
I80
tp3495
a(F2086.919499893615
I80
tp3496
a(F2026.026661273603
I80
tp3497
a(F2491.933302282414
I35
tp3498
a(F1829.1157407429523
I80
tp3499
a(F1602.9882865559093
I448
tp3500
a(F1577.9337746750239
I448
tp3501
a(F1607.6066394376016
I448
tp3502
a(F1595.9741793916128
I448
tp3503
a(F1524.1018707005624
I448
tp3504
a(F1557.7245707010081
I448
tp3505
a(F1460.5328856526646
I448
tp3506
a(F1524.2205669053674
I448
tp3507
a(F1482.2858317275172
I448
tp3508
a(F1439.8134798474907
I448
tp3509
a(F1270.5474046556117
I464
tp3510
a(F1307.3299038804837
I464
tp3511
a(F1351.7124412241913
I464
tp3512
a(F1350.0428812608293
I464
tp3513
a(F1322.0406214639042
I464
tp3514
a(F1281.2998705481043
I464
tp3515
a(F1266.1803857684004
I464
tp3516
a(F1389.2174093517797
I159
tp3517
a(F1364.1849546429069
I159
tp3518
a(F1399.9783937259303
I159
tp3519
a(F1405.5601485347977
I159
tp3520
a(F1412.748970281282
I159
tp3521
a(F1421.9545575777272
I159
tp3522
a(F1380.7846913741082
I159
tp3523
a(F1394.330006271619
I159
tp3524
a(F1425.6362800069553
I159
tp3525
a(F1425.6785589707854
I159
tp3526
a(F1398.9667854356194
I159
tp3527
a(F1406.396518869655
I159
tp3528
a(F1430.9610431235687
I159
tp3529
a(F1447.2247457186093
I159
tp3530
a(F1432.3828476950264
I159
tp3531
a(F1457.3382855560694
I159
tp3532
a(F1471.9290220672835
I159
tp3533
a(F1485.6151068441213
I159
tp3534
a(F1504.5669597970495
I159
tp3535
a(F1459.2713124134914
I159
tp3536
a(F1489.8523225429647
I159
tp3537
a(F1525.9285492124154
I159
tp3538
a(F1539.406827006042
I159
tp3539
a(F1563.953839995851
I159
tp3540
a(F1580.778084709947
I159
tp3541
a(F1551.1115486768485
I159
tp3542
a(F1610.1614877486263
I159
tp3543
a(F1632.9625887710247
I105
tp3544
a(F1592.571268589756
I105
tp3545
a(F1648.3756319566146
I105
tp3546
a(F1583.5967635694544
I105
tp3547
a(F1665.5180145844236
I105
tp3548
a(F1728.735002065624
I80
tp3549
a(F1725.534707781012
I80
tp3550
a(F1728.5768306710531
I80
tp3551
a(F1765.490960927685
I80
tp3552
a(F1734.092530278431
I80
tp3553
a(F1761.8710452093565
I80
tp3554
a(F1744.4205169585732
I80
tp3555
a(F1702.814275289641
I80
tp3556
a(F1787.4091833989469
I80
tp3557
a(F1770.3396180432967
I80
tp3558
a(F1716.6470372259864
I80
tp3559
a(F1790.6117038337834
I80
tp3560
a(F1795.8244344457428
I80
tp3561
a(F2077.1520993056142
I80
tp3562
a(F1807.7666330849668
I80
tp3563
a(F1829.7300157302286
I80
tp3564
a(F1828.9640582142674
I80
tp3565
a(F1836.5757330381653
I80
tp3566
a(F1834.7058937679874
I80
tp3567
a(F1857.3513636688235
I80
tp3568
a(F1818.8913939082277
I80
tp3569
a(F2012.3727234835453
I80
tp3570
a(F2042.279736314724
I80
tp3571
a(F1848.3087810430115
I80
tp3572
a(F1862.7978327312599
I80
tp3573
a(F1880.7081790041132
I80
tp3574
a(F2109.9307649483203
I80
tp3575
a(F1855.9779426763102
I80
tp3576
a(F1893.2150511524194
I80
tp3577
a(F1861.17438472849
I80
tp3578
a(F1842.6382811633712
I80
tp3579
a(F1854.6030362385707
I80
tp3580
a(F2020.5030107021287
I80
tp3581
a(F2006.9672276193164
I80
tp3582
a(F1975.0455935870536
I80
tp3583
a(F1908.4159104421378
I80
tp3584
a(F1840.165227830593
I80
tp3585
a(F2015.537607816762
I80
tp3586
a(F1877.80069275373
I80
tp3587
a(F1787.0686177303983
I80
tp3588
a(F1952.8015408881915
I80
tp3589
a(F1865.642223718914
I80
tp3590
a(F1919.2410270445257
I80
tp3591
a(F2081.1193847465534
I80
tp3592
a(F2115.7015374174557
I80
tp3593
a(F2067.733795473172
I80
tp3594
a(F1819.7530296438724
I80
tp3595
a(F1960.4299635590728
I80
tp3596
a(F1988.4321501616316
I80
tp3597
a(F2001.1985386325832
I80
tp3598
a(F2043.1406499578836
I80
tp3599
a(F2092.627866635417
I80
tp3600
a(F2063.060209301613
I80
tp3601
a(F2277.620460964272
I35
tp3602
a(F2272.312223306274
I35
tp3603
a(F2280.8267177672396
I35
tp3604
a(F2266.0739813455125
I35
tp3605
a(F2263.4396892612585
I35
tp3606
a(F2286.6549323794275
I35
tp3607
a(F2262.839310280596
I35
tp3608
a(F2260.7679830566726
I35
tp3609
a(F2284.727923638866
I35
tp3610
a(F2262.7601056294343
I35
tp3611
a(F2266.818017505185
I35
tp3612
a(F2280.5418051427855
I35
tp3613
a(F2277.900819453717
I35
tp3614
a(F2275.8639661647535
I35
tp3615
a(F2273.23162276772
I35
tp3616
a(F2496.772257542655
I35
tp3617
a(F2514.9949249299166
I35
tp3618
a(F1637.0416333669152
I448
tp3619
a(F1608.429631101678
I448
tp3620
a(F1640.8054695256096
I448
tp3621
a(F1564.6013913776876
I448
tp3622
a(F1610.8343995415207
I448
tp3623
a(F1575.4158907700557
I448
tp3624
a(F1578.4631097015395
I448
tp3625
a(F1502.3799878798766
I448
tp3626
a(F1540.5839074765024
I448
tp3627
a(F1465.6901274941415
I448
tp3628
a(F1454.537980701767
I448
tp3629
a(F1323.1767731559917
I464
tp3630
a(F1353.9384111033737
I464
tp3631
a(F1289.5151820423507
I464
tp3632
a(F1323.7909013079243
I464
tp3633
a(F1299.8407107723583
I464
tp3634
a(F1277.449231670769
I464
tp3635
a(F1294.6096809316696
I464
tp3636
a(F1597.4237769926997
I159
tp3637
a(F1597.6414939551958
I159
tp3638
a(F1630.7181661452285
I105
tp3639
a(F1681.9071768912352
I105
tp3640
a(F1691.5506990338695
I105
tp3641
a(F1628.4129906289527
I105
tp3642
a(F1737.1921187722971
I105
tp3643
a(F1799.6037898556517
I80
tp3644
a(F1690.0365509624546
I80
tp3645
a(F1813.4214021119478
I80
tp3646
a(F1739.331598790679
I80
tp3647
a(F2111.8242185447907
I98
tp3648
a(F1830.7482225207407
I80
tp3649
a(F2101.633938140142
I98
tp3650
a(F1839.059816955234
I80
tp3651
a(F2108.1137211244177
I80
tp3652
a(F1865.7991995844902
I80
tp3653
a(F1876.0572503883764
I80
tp3654
a(F2094.316460812608
I80
tp3655
a(F1905.1973992848018
I80
tp3656
a(F2051.4695002119543
I80
tp3657
a(F1754.3029274198088
I80
tp3658
a(F1925.320235096168
I80
tp3659
a(F1894.9247674429084
I80
tp3660
a(F1973.2904220309024
I80
tp3661
a(F1951.125994114293
I80
tp3662
a(F1988.8980082727187
I80
tp3663
a(F1884.8231603696602
I80
tp3664
a(F1978.054184538475
I80
tp3665
a(F1961.3679056015758
I80
tp3666
a(F2122.8979048006913
I80
tp3667
a(F2010.6747495587033
I80
tp3668
a(F2041.3472596950721
I80
tp3669
a(F2081.7994268936654
I80
tp3670
a(F2085.847368758088
I80
tp3671
a(F1829.0820456492197
I80
tp3672
a(F1850.6395196213732
I80
tp3673
a(F1961.9701048453767
I80
tp3674
a(F2092.311979204416
I80
tp3675
a(F2117.109427010771
I80
tp3676
a(F2123.6990935969416
I80
tp3677
a(F2021.9479179652355
I80
tp3678
a(F2124.4036221314814
I80
tp3679
a(F2052.4644469259656
I80
tp3680
a(F1983.4321084081091
I80
tp3681
a(F2135.2251933379916
I80
tp3682
a(F2015.4909260727313
I80
tp3683
a(F2008.071020607041
I80
tp3684
a(F2080.2447915030175
I80
tp3685
a(F2106.739962906534
I80
tp3686
a(F2177.8265872907227
I80
tp3687
a(F2298.512887496975
I80
tp3688
a(F2314.137463381348
I80
tp3689
a(F2296.1479712674054
I80
tp3690
a(F2311.4804188622456
I80
tp3691
a(F2200.056495775631
I35
tp3692
a(F2196.4290956894924
I35
tp3693
a(F2205.4238651578685
I35
tp3694
a(F2202.9010425200386
I35
tp3695
a(F2213.5764274026874
I35
tp3696
a(F2208.5103024909904
I35
tp3697
a(F2216.67392987977
I35
tp3698
a(F2197.3179981378044
I35
tp3699
a(F2285.8000901102796
I35
tp3700
a(F2304.8936554101883
I35
tp3701
a(F2220.1210286217784
I35
tp3702
a(F2200.7954142219414
I35
tp3703
a(F2221.0106675077814
I35
tp3704
a(F2204.2137972040337
I35
tp3705
a(F2207.3324440980505
I35
tp3706
a(F2220.494345641269
I35
tp3707
a(F2213.4935655114573
I35
tp3708
a(F2210.9799507658645
I35
tp3709
a(F2216.623337141399
I35
tp3710
a(F2242.754974965246
I35
tp3711
a(F2259.8387700126173
I35
tp3712
a(F2287.353571703722
I35
tp3713
a(F2294.1903488423927
I35
tp3714
a(F2263.005508350388
I35
tp3715
a(F2491.2618726071078
I35
tp3716
a(F2487.5078389907276
I35
tp3717
a(F2509.5901958632107
I35
tp3718
a(F2537.4551019498076
I35
tp3719
a(F2514.5540524944527
I35
tp3720
a(F2544.454039318082
I35
tp3721
a(F2564.8218249568017
I35
tp3722
a(F2520.371409693848
I35
tp3723
a(F2080.282336233066
I80
tp3724
a(F2043.8529993330267
I80
tp3725
a(F1676.161931786133
I448
tp3726
a(F1644.4378123068925
I448
tp3727
a(F1675.2369955225258
I448
tp3728
a(F1622.8044527492077
I448
tp3729
a(F1600.4184460145962
I448
tp3730
a(F1653.9062606078778
I448
tp3731
a(F1634.2654969583464
I448
tp3732
a(F1564.6105491355088
I448
tp3733
a(F1606.6169891021225
I448
tp3734
a(F1528.9286496060292
I448
tp3735
a(F1556.7996866037383
I448
tp3736
a(F1519.385013678594
I448
tp3737
a(F1524.0923746390579
I448
tp3738
a(F1378.5970089310294
I464
tp3739
a(F1372.3122787425093
I464
tp3740
a(F1344.0526874297611
I464
tp3741
a(F1341.8061451190194
I464
tp3742
a(F1395.7306751354567
I464
tp3743
a(F1353.5148575864682
I464
tp3744
a(F1368.688883896641
I464
tp3745
a(F1648.3913459900753
I105
tp3746
a(F1638.9828786674586
I105
tp3747
a(F1713.748669549607
I105
tp3748
a(F1662.9059986975997
I105
tp3749
a(F1673.7734612810546
I105
tp3750
a(F1726.5688099843564
I105
tp3751
a(F1668.022943484809
I105
tp3752
a(F1759.2219775230838
I105
tp3753
a(F1769.0263362438682
I80
tp3754
a(F1668.3804631641788
I80
tp3755
a(F1815.7542608314739
I80
tp3756
a(F1822.8841316920348
I80
tp3757
a(F2112.1829998447515
I98
tp3758
a(F1844.7532037359915
I80
tp3759
a(F1868.8950277282856
I80
tp3760
a(F2127.1052888299014
I80
tp3761
a(F2076.1318834129083
I80
tp3762
a(F2059.464289898922
I80
tp3763
a(F1888.856614010252
I80
tp3764
a(F2053.5219539248733
I80
tp3765
a(F2119.54181211531
I80
tp3766
a(F1912.289950625796
I80
tp3767
a(F1923.7986389076516
I80
tp3768
a(F1960.1662134523879
I80
tp3769
a(F2119.746069526579
I80
tp3770
a(F2070.523888599201
I80
tp3771
a(F1899.3069221137553
I80
tp3772
a(F1911.2248088027004
I80
tp3773
a(F1912.2538563932112
I80
tp3774
a(F1908.235310680713
I80
tp3775
a(F1875.8960658735393
I80
tp3776
a(F1815.5981658073088
I80
tp3777
a(F2078.0897936409992
I80
tp3778
a(F2065.999013049004
I80
tp3779
a(F1998.2593564051479
I80
tp3780
a(F1869.0204875376594
I80
tp3781
a(F2011.1282050619823
I80
tp3782
a(F2112.6855373941744
I80
tp3783
a(F1840.8606349046051
I80
tp3784
a(F2062.905490539606
I80
tp3785
a(F2146.8990090671778
I80
tp3786
a(F2136.71217942635
I80
tp3787
a(F2066.172995953916
I80
tp3788
a(F2066.966724637121
I80
tp3789
a(F2026.053587040705
I80
tp3790
a(F2068.1589458688086
I80
tp3791
a(F2124.386554824382
I80
tp3792
a(F2027.7213717818424
I80
tp3793
a(F2137.96712826693
I80
tp3794
a(F2164.3078563319127
I80
tp3795
a(F2189.297897091836
I80
tp3796
a(F2090.4858970605446
I80
tp3797
a(F2206.2632420722202
I80
tp3798
a(F2027.7993883708975
I80
tp3799
a(F2024.5812477451177
I80
tp3800
a(F2219.5316712969498
I80
tp3801
a(F2121.171769430978
I80
tp3802
a(F2208.153753848011
I80
tp3803
a(F2165.0735919540007
I80
tp3804
a(F2183.5679680109365
I80
tp3805
a(F2255.991791313775
I80
tp3806
a(F2139.3121849047775
I80
tp3807
a(F2273.144836581152
I80
tp3808
a(F2251.753565670006
I80
tp3809
a(F2258.5999708562053
I80
tp3810
a(F2171.379916170724
I80
tp3811
a(F2296.7727542143407
I80
tp3812
a(F2319.04726130331
I80
tp3813
a(F2326.2186836376945
I80
tp3814
a(F2284.631842603666
I80
tp3815
a(F2221.4847468635303
I80
tp3816
a(F2194.1514575342735
I80
tp3817
a(F2198.340576076668
I35
tp3818
a(F2311.97070046528
I80
tp3819
a(F2195.3011260752523
I35
tp3820
a(F2248.0606296728324
I35
tp3821
a(F2190.6661494040445
I35
tp3822
a(F2232.2364747433403
I35
tp3823
a(F2292.964569275987
I35
tp3824
a(F2209.5427887387796
I35
tp3825
a(F2270.220479553929
I35
tp3826
a(F2299.0770798698104
I35
tp3827
a(F2242.4043505577047
I35
tp3828
a(F2232.045890641971
I35
tp3829
a(F2273.943979128913
I35
tp3830
a(F2287.9062017366227
I35
tp3831
a(F2484.7193974295565
I35
tp3832
a(F2497.0012083157376
I35
tp3833
a(F2504.4798217815996
I35
tp3834
a(F2534.050467452494
I35
tp3835
a(F2578.537040820529
I35
tp3836
a(F2558.7327907963454
I35
tp3837
a(F1934.950449382168
I80
tp3838
a(F2184.05630804683
I80
tp3839
a(F1720.4624793529056
I448
tp3840
a(F1723.588463250679
I448
tp3841
a(F1709.4035943409526
I448
tp3842
a(F1700.8967625114624
I448
tp3843
a(F1651.4346697049214
I448
tp3844
a(F1685.9611807207223
I448
tp3845
a(F1651.6071288255805
I448
tp3846
a(F1575.5718292288882
I448
tp3847
a(F1608.262141619427
I448
tp3848
a(F1565.1714250426828
I448
tp3849
a(F1564.8016711477474
I448
tp3850
a(F1404.828921881182
I464
tp3851
a(F1391.7404926194606
I464
tp3852
a(F1381.8374863511483
I464
tp3853
a(F1406.0023500148427
I464
tp3854
a(F1384.7488861242923
I464
tp3855
a(F1382.6165288005325
I464
tp3856
a(F1728.8588773551671
I105
tp3857
a(F1676.4264002901234
I105
tp3858
a(F1684.201591421117
I105
tp3859
a(F1668.7376448905914
I105
tp3860
a(F1708.2429528694613
I105
tp3861
a(F1743.3792626920329
I105
tp3862
a(F1706.4911407958914
I105
tp3863
a(F1700.686678552908
I105
tp3864
a(F1711.9990612589838
I80
tp3865
a(F1713.643736744475
I80
tp3866
a(F1797.5838055886059
I80
tp3867
a(F1747.1817393006402
I80
tp3868
a(F1838.2742893164414
I80
tp3869
a(F2115.0560872930137
I80
tp3870
a(F2077.155922183028
I80
tp3871
a(F2060.796498596821
I80
tp3872
a(F1870.232894207476
I80
tp3873
a(F2088.5168966780693
I80
tp3874
a(F2097.478646080872
I80
tp3875
a(F2099.075426663211
I80
tp3876
a(F2060.3828937189064
I80
tp3877
a(F2051.4488038447603
I80
tp3878
a(F1888.275568950153
I80
tp3879
a(F2067.1442453634113
I80
tp3880
a(F2116.9556559886237
I80
tp3881
a(F1909.076031587057
I80
tp3882
a(F1884.1462144131815
I80
tp3883
a(F2129.4231291161373
I80
tp3884
a(F2102.097449954329
I80
tp3885
a(F2116.7049227986276
I80
tp3886
a(F1802.5538222153575
I80
tp3887
a(F1966.0818792250918
I80
tp3888
a(F1997.4478842863268
I80
tp3889
a(F2119.6197484733048
I80
tp3890
a(F2128.8168574941365
I80
tp3891
a(F2132.099172845408
I80
tp3892
a(F1893.96461037817
I80
tp3893
a(F2145.520339540743
I80
tp3894
a(F2168.673929549478
I80
tp3895
a(F2013.9875776564863
I80
tp3896
a(F1868.4182080873554
I80
tp3897
a(F2107.7870182784536
I80
tp3898
a(F2105.52828735921
I80
tp3899
a(F2171.358541465256
I80
tp3900
a(F2114.388506680736
I80
tp3901
a(F2117.4171535157484
I80
tp3902
a(F2195.4635869563804
I80
tp3903
a(F2189.886407374856
I80
tp3904
a(F2186.395496021654
I80
tp3905
a(F2183.686280394274
I80
tp3906
a(F2189.5871269363397
I80
tp3907
a(F2186.5157476251343
I80
tp3908
a(F2187.543752657262
I80
tp3909
a(F2134.8819278614387
I80
tp3910
a(F2201.498472678412
I80
tp3911
a(F2195.550796046901
I80
tp3912
a(F2197.6213166140237
I80
tp3913
a(F2195.0393944045227
I80
tp3914
a(F2196.518583252556
I80
tp3915
a(F2034.9578440037633
I80
tp3916
a(F2202.5317773852835
I80
tp3917
a(F2168.0181112602672
I80
tp3918
a(F2219.551188050188
I80
tp3919
a(F2058.699420686219
I80
tp3920
a(F2141.7017517121685
I80
tp3921
a(F2051.645933876723
I80
tp3922
a(F2232.412112340003
I80
tp3923
a(F1894.7694903402316
I67
tp3924
a(F1897.3259723115798
I67
tp3925
a(F2257.7226616174876
I80
tp3926
a(F1900.0872372588356
I67
tp3927
a(F2194.514512962114
I80
tp3928
a(F1902.6534082286719
I67
tp3929
a(F1894.8449807036181
I67
tp3930
a(F1905.4237470520864
I67
tp3931
a(F1896.9874902090671
I67
tp3932
a(F2214.540943303832
I80
tp3933
a(F1908.0505737728047
I67
tp3934
a(F1898.5556237893095
I67
tp3935
a(F1910.8300434325815
I67
tp3936
a(F1913.4643375281603
I67
tp3937
a(F1916.2528623920996
I67
tp3938
a(F1918.840775454853
I67
tp3939
a(F2218.184045885737
I80
tp3940
a(F2174.2886522009962
I80
tp3941
a(F1921.6381509488235
I67
tp3942
a(F2231.172440802857
I80
tp3943
a(F1924.990193175067
I67
tp3944
a(F1927.1573057050068
I67
tp3945
a(F2249.256892244744
I80
tp3946
a(F1929.8591500480659
I67
tp3947
a(F1913.7663693371805
I67
tp3948
a(F1932.6300934288302
I67
tp3949
a(F1934.810769751587
I67
tp3950
a(F2304.406280781309
I80
tp3951
a(F1937.6377304389387
I67
tp3952
a(F2245.304210653894
I80
tp3953
a(F1918.4901106869074
I35
tp3954
a(F2281.115077827774
I80
tp3955
a(F1943.4385400469148
I35
tp3956
a(F1924.2726964449355
I35
tp3957
a(F2211.675132299558
I67
tp3958
a(F1926.727964213765
I35
tp3959
a(F1943.6307739680612
I35
tp3960
a(F1941.815017975627
I35
tp3961
a(F1929.289095412008
I35
tp3962
a(F1941.9003905255095
I35
tp3963
a(F2273.798286998165
I80
tp3964
a(F1934.216020693624
I35
tp3965
a(F1938.4568851236095
I35
tp3966
a(F1936.6749013737763
I35
tp3967
a(F2232.7987803863975
I35
tp3968
a(F2261.006941357901
I35
tp3969
a(F2288.9070284228933
I35
tp3970
a(F2321.1328452986313
I35
tp3971
a(F2294.185569798709
I35
tp3972
a(F2329.1919742270848
I35
tp3973
a(F2323.672618361509
I35
tp3974
a(F2485.5224154370503
I35
tp3975
a(F2497.45270895723
I35
tp3976
a(F2528.678962963215
I35
tp3977
a(F2595.390831804327
I35
tp3978
a(F2593.8170829582887
I35
tp3979
a(F1716.9647883142657
I105
tp3980
a(F1757.4384691597782
I448
tp3981
a(F1764.790575462405
I448
tp3982
a(F1749.725215453273
I448
tp3983
a(F1710.9418262970523
I448
tp3984
a(F1668.194508637068
I448
tp3985
a(F1627.8093427453175
I448
tp3986
a(F1675.0985951139373
I448
tp3987
a(F1642.8380895047571
I448
tp3988
a(F1616.3894598789711
I448
tp3989
a(F1619.373690973322
I448
tp3990
a(F1577.979296295453
I464
tp3991
a(F1581.3804712013782
I464
tp3992
a(F1573.0493433713682
I464
tp3993
a(F1584.0985531055487
I464
tp3994
a(F1568.12939957935
I464
tp3995
a(F1565.6732106021016
I464
tp3996
a(F1586.9049111862666
I464
tp3997
a(F1563.306857565428
I464
tp3998
a(F1560.8565339207485
I464
tp3999
a(F1589.129196880824
I464
tp4000
a(F1556.1447800609983
I464
tp4001
a(F1536.8629377023485
I464
tp4002
a(F1534.4368601721912
I464
tp4003
a(F1539.477437507641
I464
tp4004
a(F1542.8416366416525
I464
tp4005
a(F1547.8936069688682
I464
tp4006
a(F1551.2653395390141
I464
tp4007
a(F1588.5468329309945
I464
tp4008
a(F1545.4602573560708
I464
tp4009
a(F1532.108418607865
I464
tp4010
a(F1587.1197474233295
I464
tp4011
a(F1524.856902166591
I464
tp4012
a(F1522.544022548804
I464
tp4013
a(F1520.1358785224077
I464
tp4014
a(F1581.1819888359128
I464
tp4015
a(F1578.7353389314792
I464
tp4016
a(F1513.2383403526005
I464
tp4017
a(F1510.8438249154322
I464
tp4018
a(F1577.3405854910006
I464
tp4019
a(F1508.5585145426387
I464
tp4020
a(F1506.1705017597087
I464
tp4021
a(F1575.1057079107716
I464
tp4022
a(F1501.6228013050056
I464
tp4023
a(F1499.2450853583255
I464
tp4024
a(F1496.9828170306741
I464
tp4025
a(F1494.6117700115615
I464
tp4026
a(F1558.10574451707
I464
tp4027
a(F1555.7979430540115
I464
tp4028
a(F1490.1106670596962
I464
tp4029
a(F1487.7501768297973
I464
tp4030
a(F1548.562431846741
I464
tp4031
a(F1546.2701361149975
I464
tp4032
a(F1543.8672619150561
I464
tp4033
a(F1483.2781417135132
I464
tp4034
a(F1543.3773221247916
I464
tp4035
a(F1481.9959844517437
I464
tp4036
a(F1479.650258170184
I464
tp4037
a(F1422.3376523108332
I464
tp4038
a(F1475.2201000295152
I464
tp4039
a(F1540.7412706035666
I464
tp4040
a(F1420.1859475769688
I464
tp4041
a(F1530.1174966502058
I464
tp4042
a(F1533.4578861889534
I464
tp4043
a(F1538.4743714001518
I464
tp4044
a(F1473.9621419076857
I464
tp4045
a(F1536.0885977140422
I464
tp4046
a(F1415.6290837783367
I464
tp4047
a(F1426.8998128456997
I464
tp4048
a(F1525.361967107838
I464
tp4049
a(F1471.761571821704
I464
tp4050
a(F1523.1148542421522
I464
tp4051
a(F1520.7450962554813
I464
tp4052
a(F1411.3607476003763
I464
tp4053
a(F1427.4406592454527
I464
tp4054
a(F1518.5069562893325
I464
tp4055
a(F1410.977177669112
I464
tp4056
a(F1508.1114703015467
I464
tp4057
a(F1511.4263931846276
I464
tp4058
a(F1465.4648374209096
I464
tp4059
a(F1499.1457317776324
I464
tp4060
a(F1505.7599395079858
I464
tp4061
a(F1409.800215686284
I464
tp4062
a(F1496.937424751313
I464
tp4063
a(F1464.244256250675
I464
tp4064
a(F1494.5984217150415
I464
tp4065
a(F1462.0755693455426
I464
tp4066
a(F1425.9090363031903
I464
tp4067
a(F1490.2059922108397
I464
tp4068
a(F1460.0546698439387
I464
tp4069
a(F1487.8779142769386
I464
tp4070
a(F1408.7139369854665
I464
tp4071
a(F1485.6939174362574
I464
tp4072
a(F1481.0550271516224
I464
tp4073
a(F1423.5781272213665
I464
tp4074
a(F1409.3156906900217
I464
tp4075
a(F1459.2938398434678
I464
tp4076
a(F1478.8846209103308
I464
tp4077
a(F1476.5739096086902
I464
tp4078
a(F1423.2273607330253
I464
tp4079
a(F1410.5725502933526
I464
tp4080
a(F1459.8857046950945
I464
tp4081
a(F1422.0816335868672
I464
tp4082
a(F1472.2581185257877
I464
tp4083
a(F1412.6338899541852
I464
tp4084
a(F1469.9587600123662
I464
tp4085
a(F1459.523794533372
I464
tp4086
a(F1464.5555467414313
I464
tp4087
a(F1467.8135047243204
I464
tp4088
a(F1413.902652470492
I464
tp4089
a(F1462.2666439685659
I464
tp4090
a(F1416.6159472196734
I464
tp4091
a(F1421.4158591549105
I464
tp4092
a(F1419.173644494955
I464
tp4093
a(F1732.9168775428702
I105
tp4094
a(F1694.727383825976
I105
tp4095
a(F1730.7394817753539
I105
tp4096
a(F1701.331672872879
I105
tp4097
a(F1706.3659743627834
I105
tp4098
a(F1739.367133744642
I105
tp4099
a(F1732.0490189123573
I105
tp4100
a(F1694.4869472786245
I105
tp4101
a(F1752.6031034791522
I105
tp4102
a(F1702.9061053565756
I105
tp4103
a(F1704.837654409278
I105
tp4104
a(F1733.4512513523566
I105
tp4105
a(F1733.504539051182
I105
tp4106
a(F1707.5680007177195
I105
tp4107
a(F1733.7192550625714
I105
tp4108
a(F1738.5537437474345
I105
tp4109
a(F1790.860445594748
I105
tp4110
a(F1734.0920706394206
I105
tp4111
a(F1829.0425645874864
I80
tp4112
a(F1851.011686287872
I80
tp4113
a(F2129.138944214747
I98
tp4114
a(F2132.4102034721827
I98
tp4115
a(F2127.138405095511
I98
tp4116
a(F2126.566375523186
I86
tp4117
a(F2135.105274168597
I98
tp4118
a(F2075.7874618012147
I80
tp4119
a(F2128.102642910724
I80
tp4120
a(F2080.906169385734
I80
tp4121
a(F2083.7667168737394
I80
tp4122
a(F2126.79053044563
I80
tp4123
a(F2086.313345980235
I80
tp4124
a(F2088.0067897818826
I80
tp4125
a(F2075.1558242732626
I80
tp4126
a(F2090.5644068839792
I80
tp4127
a(F2076.866069725066
I80
tp4128
a(F2139.742546192229
I80
tp4129
a(F2091.4125148557478
I80
tp4130
a(F2077.7334232549574
I80
tp4131
a(F2138.416380386702
I80
tp4132
a(F2093.9812540827975
I80
tp4133
a(F2079.4569374408225
I80
tp4134
a(F2102.2867082847024
I80
tp4135
a(F2097.117035335541
I80
tp4136
a(F2130.7471671809594
I80
tp4137
a(F2105.476416697324
I80
tp4138
a(F2139.2181986789574
I80
tp4139
a(F2138.592710417906
I80
tp4140
a(F2139.4094761054234
I80
tp4141
a(F2114.0959385847664
I80
tp4142
a(F2117.253840687546
I80
tp4143
a(F2082.1226171037006
I80
tp4144
a(F2141.1108057776187
I80
tp4145
a(F2081.6100620629413
I80
tp4146
a(F2127.6674853103254
I80
tp4147
a(F2125.61535405518
I80
tp4148
a(F2123.0089829529993
I80
tp4149
a(F2141.9423768872034
I80
tp4150
a(F2082.5241503755014
I80
tp4151
a(F2141.300012042126
I80
tp4152
a(F2081.981438302371
I80
tp4153
a(F2142.1463175467566
I80
tp4154
a(F2108.418044370615
I80
tp4155
a(F2105.856243430593
I80
tp4156
a(F2083.8415915991623
I80
tp4157
a(F2114.1693578031263
I80
tp4158
a(F2111.5993800059905
I80
tp4159
a(F2103.916240287546
I80
tp4160
a(F2086.7261539740293
I80
tp4161
a(F1902.5693511222132
I80
tp4162
a(F2117.029331640714
I80
tp4163
a(F2103.3617281881234
I80
tp4164
a(F2120.2205172861627
I80
tp4165
a(F2089.349206271217
I80
tp4166
a(F1893.1931776630722
I80
tp4167
a(F2123.0792119783305
I80
tp4168
a(F2104.2882426691476
I80
tp4169
a(F2103.791563379358
I80
tp4170
a(F2092.8220484865033
I80
tp4171
a(F2124.8436924363473
I80
tp4172
a(F2101.8324789512913
I80
tp4173
a(F2095.7165327403427
I80
tp4174
a(F2101.35513146321
I80
tp4175
a(F2098.825361203443
I80
tp4176
a(F2127.476981138722
I80
tp4177
a(F2136.994655425027
I80
tp4178
a(F2134.409676144467
I80
tp4179
a(F2129.252846006582
I80
tp4180
a(F2132.4512491462033
I80
tp4181
a(F1981.601229713994
I80
tp4182
a(F1999.169784329906
I80
tp4183
a(F1853.9370092584456
I80
tp4184
a(F2008.8879188531441
I80
tp4185
a(F2033.5821748224973
I80
tp4186
a(F2208.7751399928716
I80
tp4187
a(F2202.688041498655
I80
tp4188
a(F1908.155138645684
I67
tp4189
a(F1878.1803222867627
I80
tp4190
a(F2224.3671270965174
I80
tp4191
a(F1900.707777365221
I67
tp4192
a(F1897.4893598786368
I67
tp4193
a(F1897.031248778111
I67
tp4194
a(F1903.2053182557356
I67
tp4195
a(F2210.658270751331
I80
tp4196
a(F2234.280602927241
I80
tp4197
a(F2198.665290628977
I80
tp4198
a(F2192.827940071965
I80
tp4199
a(F1911.6974263185311
I67
tp4200
a(F2054.0719850034275
I80
tp4201
a(F1903.1860792313016
I67
tp4202
a(F2238.931495938884
I80
tp4203
a(F2059.543789454594
I80
tp4204
a(F2179.163263635373
I80
tp4205
a(F2227.9302842865295
I80
tp4206
a(F1927.7500638520723
I67
tp4207
a(F2100.3479649815085
I80
tp4208
a(F2189.190100687851
I80
tp4209
a(F2216.8188471777553
I80
tp4210
a(F2255.1421903686537
I80
tp4211
a(F2071.23143006883
I80
tp4212
a(F2095.4328418007403
I80
tp4213
a(F2275.211802699533
I80
tp4214
a(F2290.461364445027
I80
tp4215
a(F2105.5527205997064
I80
tp4216
a(F2105.222300629421
I67
tp4217
a(F1944.7814870060013
I67
tp4218
a(F1923.4965977191634
I67
tp4219
a(F2229.579334200171
I80
tp4220
a(F1966.5922280455015
I67
tp4221
a(F1945.2823552998805
I35
tp4222
a(F1969.0481063991892
I35
tp4223
a(F2319.569361493175
I80
tp4224
a(F2255.143279133924
I35
tp4225
a(F2328.97138312333
I80
tp4226
a(F2330.9942690845746
I35
tp4227
a(F2275.9267210713815
I35
tp4228
a(F2306.590678701059
I35
tp4229
a(F2359.7927937402437
I35
tp4230
a(F2378.847887830238
I35
tp4231
a(F2342.626138376298
I35
tp4232
a(F2373.208534408165
I35
tp4233
a(F2394.0548149879346
I35
tp4234
a(F2394.2305990741797
I35
tp4235
a(F2433.8021835117725
I35
tp4236
a(F2469.9041534451053
I35
tp4237
a(F2468.7619384655463
I35
tp4238
a(F2489.4364039252832
I35
tp4239
a(F2468.902547478237
I35
tp4240
a(F2559.932754306066
I35
tp4241
a(F2618.5756602548972
I35
tp4242
a(F2614.383992840378
I35
tp4243
a(F2086.0395467803305
I80
tp4244
a(F2281.3507210731427
I80
tp4245
a(F1793.5664528772015
I448
tp4246
a(F1740.9865035613257
I448
tp4247
a(F1721.269389082864
I448
tp4248
a(F1746.7889076954257
I448
tp4249
a(F1685.370765123797
I448
tp4250
a(F1719.9964601432564
I448
tp4251
a(F1663.6204658423787
I448
tp4252
a(F1691.4004155654418
I448
tp4253
a(F1670.4804873227295
I448
tp4254
a(F1593.4641407741133
I448
tp4255
a(F1555.7844556598207
I464
tp4256
a(F1619.6697759234378
I464
tp4257
a(F1545.530891782146
I464
tp4258
a(F1582.5736280131941
I464
tp4259
a(F1517.3170032730904
I464
tp4260
a(F1496.7762631639423
I464
tp4261
a(F1548.2714139862696
I464
tp4262
a(F1487.0033946478613
I464
tp4263
a(F1538.5150661432754
I464
tp4264
a(F1472.3227051208469
I464
tp4265
a(F1460.8234931871593
I464
tp4266
a(F1507.548575912826
I464
tp4267
a(F1437.2562653436667
I464
tp4268
a(F1486.1968267940267
I464
tp4269
a(F1448.396605695226
I464
tp4270
a(F1473.7059678784296
I464
tp4271
a(F1709.9219671288656
I159
tp4272
a(F1714.4618795003248
I159
tp4273
a(F1712.530631035774
I159
tp4274
a(F1707.4668591104567
I159
tp4275
a(F1707.022322143416
I159
tp4276
a(F1717.1877412585404
I105
tp4277
a(F1708.4512732541657
I105
tp4278
a(F1710.391124849454
I105
tp4279
a(F1717.2892578085407
I105
tp4280
a(F1713.5587991850784
I105
tp4281
a(F1776.5778194132074
I105
tp4282
a(F1764.6090009407167
I105
tp4283
a(F1798.192678954152
I105
tp4284
a(F1762.5220384001684
I105
tp4285
a(F1773.622647602467
I80
tp4286
a(F1830.1632972636637
I105
tp4287
a(F1774.8879316672303
I80
tp4288
a(F1783.9820174776073
I80
tp4289
a(F1775.8885446319898
I80
tp4290
a(F1884.1835723784957
I80
tp4291
a(F1810.4576898664973
I80
tp4292
a(F1797.5538039719088
I80
tp4293
a(F1896.178306145855
I80
tp4294
a(F1895.670518248946
I80
tp4295
a(F1862.5374072593427
I80
tp4296
a(F1919.837929285734
I80
tp4297
a(F2029.2915217864004
I80
tp4298
a(F2029.9927626324654
I80
tp4299
a(F2045.2956518604951
I80
tp4300
a(F1888.8040318684139
I67
tp4301
a(F2069.508621929135
I80
tp4302
a(F2216.6420497015615
I80
tp4303
a(F2233.858118804534
I80
tp4304
a(F1941.8505175505966
I67
tp4305
a(F2239.6369672050873
I80
tp4306
a(F1903.4916105658674
I67
tp4307
a(F2253.917540694919
I80
tp4308
a(F2274.6831165874455
I80
tp4309
a(F2282.9654815407353
I80
tp4310
a(F2111.528483729142
I80
tp4311
a(F2283.2019227973437
I80
tp4312
a(F2280.4681194917166
I80
tp4313
a(F2113.116742775938
I80
tp4314
a(F2277.461288832257
I80
tp4315
a(F2266.4272936980437
I80
tp4316
a(F2258.986898027466
I80
tp4317
a(F1965.0298944834562
I67
tp4318
a(F2293.187493536805
I80
tp4319
a(F2127.3035465236208
I67
tp4320
a(F2135.322806857997
I80
tp4321
a(F2286.802728380409
I80
tp4322
a(F2299.357019748009
I80
tp4323
a(F2256.638296113602
I80
tp4324
a(F2302.312174057068
I80
tp4325
a(F2142.2061253012016
I67
tp4326
a(F2311.6858962331985
I80
tp4327
a(F2260.1680713422243
I80
tp4328
a(F2257.022129513462
I35
tp4329
a(F2280.3320067337354
I35
tp4330
a(F2292.4078245404335
I35
tp4331
a(F2277.281104442619
I35
tp4332
a(F2357.8479729105443
I35
tp4333
a(F2299.3537076525686
I35
tp4334
a(F2391.9108931131987
I35
tp4335
a(F2335.386002994132
I35
tp4336
a(F2400.7706462589545
I35
tp4337
a(F2371.5468381945434
I35
tp4338
a(F2402.464949013357
I35
tp4339
a(F2413.896605108552
I35
tp4340
a(F2413.662679338605
I35
tp4341
a(F2440.439948406142
I35
tp4342
a(F2466.540924804437
I35
tp4343
a(F2445.697492924669
I35
tp4344
a(F2475.4696220974474
I35
tp4345
a(F2472.978739466751
I35
tp4346
a(F2514.297743664537
I35
tp4347
a(F2496.582732166117
I35
tp4348
a(F2532.7794968052067
I35
tp4349
a(F2547.373919372814
I35
tp4350
a(F2554.8501644900493
I35
tp4351
a(F2588.6363587371206
I35
tp4352
a(F2599.7573615539477
I35
tp4353
a(F2627.756544346227
I35
tp4354
a(F2648.4376636436104
I35
tp4355
a(F2626.8005029838973
I35
tp4356
a(F2637.8873244880074
I35
tp4357
a(F2681.5967080749065
I35
tp4358
a(F2644.5245823566834
I35
tp4359
a(F1507.6262558924445
I464
tp4360
a(F1831.8210278640975
I448
tp4361
a(F1834.542368656724
I448
tp4362
a(F1799.8295832938948
I448
tp4363
a(F1796.2386248380312
I448
tp4364
a(F1778.4313203083202
I448
tp4365
a(F1733.1153414752403
I448
tp4366
a(F1770.9602407253751
I448
tp4367
a(F1710.876253456263
I448
tp4368
a(F1713.4504388996131
I448
tp4369
a(F1723.2057093422077
I448
tp4370
a(F1586.6959190482894
I464
tp4371
a(F1610.214217520349
I464
tp4372
a(F1521.1981855728984
I464
tp4373
a(F1530.5892297168175
I464
tp4374
a(F1472.1534878887376
I464
tp4375
a(F1489.0937753663409
I464
tp4376
a(F1496.9048784668553
I464
tp4377
a(F1468.2647679482461
I464
tp4378
a(F1476.739518666523
I464
tp4379
a(F1493.9726861587947
I464
tp4380
a(F1817.2322543443804
I80
tp4381
a(F1811.6370533249174
I80
tp4382
a(F1833.8491443551038
I80
tp4383
a(F1802.3651415255267
I80
tp4384
a(F1873.1699986140134
I80
tp4385
a(F1899.027694990193
I80
tp4386
a(F1840.1878797413333
I80
tp4387
a(F1913.8945582977924
I80
tp4388
a(F2057.255069425754
I80
tp4389
a(F2062.6839459434386
I80
tp4390
a(F2042.5790432436884
I80
tp4391
a(F1948.9100140289788
I80
tp4392
a(F2282.1885369327483
I80
tp4393
a(F1947.8907526092498
I67
tp4394
a(F1966.9805250245595
I67
tp4395
a(F2263.3023102148363
I80
tp4396
a(F2264.773129692322
I80
tp4397
a(F2318.840117090234
I80
tp4398
a(F2295.1883059248526
I80
tp4399
a(F1931.6400649270195
I67
tp4400
a(F2340.6506733027018
I80
tp4401
a(F1980.4178275231895
I67
tp4402
a(F2341.9908004628496
I80
tp4403
a(F2142.4460475703463
I80
tp4404
a(F2155.202427706349
I80
tp4405
a(F2023.5505299519293
I67
tp4406
a(F2145.833031514973
I67
tp4407
a(F1958.8435093919427
I67
tp4408
a(F1998.8833091659747
I67
tp4409
a(F2001.0226796554182
I67
tp4410
a(F2151.1836778103557
I67
tp4411
a(F2168.7174680454245
I35
tp4412
a(F2185.858399390692
I35
tp4413
a(F2185.2609717461314
I35
tp4414
a(F2322.5883277112903
I80
tp4415
a(F2337.4825747703176
I35
tp4416
a(F2348.468270750181
I35
tp4417
a(F2314.966092051355
I35
tp4418
a(F2327.6968074276706
I35
tp4419
a(F2310.1954501926407
I35
tp4420
a(F2346.0430809748614
I35
tp4421
a(F2359.2129459990174
I35
tp4422
a(F2365.5172543335566
I35
tp4423
a(F2422.4605570274002
I35
tp4424
a(F2419.3449202624024
I35
tp4425
a(F2429.7628077043805
I35
tp4426
a(F2442.218323449715
I35
tp4427
a(F2388.5022808523822
I35
tp4428
a(F2453.3996526159895
I35
tp4429
a(F2418.834591773045
I35
tp4430
a(F2428.577145471822
I35
tp4431
a(F2486.7344572193747
I35
tp4432
a(F2481.1711171864554
I35
tp4433
a(F2448.6922003329855
I35
tp4434
a(F2478.494579049636
I35
tp4435
a(F2496.2129855358894
I35
tp4436
a(F2477.0983964138472
I35
tp4437
a(F2498.925636365306
I35
tp4438
a(F2511.0025031784103
I35
tp4439
a(F2520.101525949205
I35
tp4440
a(F2527.1613935054093
I35
tp4441
a(F2568.8192657867316
I35
tp4442
a(F2580.3713070566705
I35
tp4443
a(F2644.1377674482173
I35
tp4444
a(F2668.9763597797673
I35
tp4445
a(F2675.289458754461
I35
tp4446
a(F2687.577671936174
I35
tp4447
a(F2639.5518957003264
I35
tp4448
a(F2702.0943076155636
I35
tp4449
a(F2655.5313029871227
I35
tp4450
a(F2664.032569818071
I35
tp4451
a(F2709.695926088187
I35
tp4452
a(F2432.053210350359
I35
tp4453
a(F2409.207796968504
I35
tp4454
a(F1836.1594800627602
I448
tp4455
a(F1867.8747087786696
I448
tp4456
a(F1800.4478973342577
I448
tp4457
a(F1782.5281523945
I448
tp4458
a(F1809.0125810503316
I448
tp4459
a(F1757.2232238944991
I448
tp4460
a(F1785.2409994847474
I448
tp4461
a(F1777.8496915603246
I448
tp4462
a(F1602.0000648751252
I448
tp4463
a(F1628.4077733682382
I448
tp4464
a(F1625.3619824775972
I464
tp4465
a(F1618.1108391015794
I464
tp4466
a(F1596.0167151833448
I464
tp4467
a(F1581.3474585410017
I464
tp4468
a(F1555.8504485593835
I464
tp4469
a(F1555.6447976503616
I464
tp4470
a(F1546.9946259224557
I464
tp4471
a(F1468.267219013187
I464
tp4472
a(F1461.0398554266142
I464
tp4473
a(F1448.6219725310123
I464
tp4474
a(F1459.4271567481
I464
tp4475
a(F1489.0169015581193
I464
tp4476
a(F1829.5593754439744
I80
tp4477
a(F1843.7593862365898
I80
tp4478
a(F1873.6869520313521
I80
tp4479
a(F1829.0385552893522
I80
tp4480
a(F1842.251655640959
I80
tp4481
a(F1916.6130898122897
I80
tp4482
a(F1868.996247841038
I80
tp4483
a(F2061.4380269037842
I80
tp4484
a(F1929.0236437281824
I80
tp4485
a(F2064.365959015756
I80
tp4486
a(F2061.2832843036213
I80
tp4487
a(F2067.08801723051
I80
tp4488
a(F2063.266767703469
I80
tp4489
a(F2068.3278185720565
I80
tp4490
a(F2066.095794789545
I80
tp4491
a(F2319.6814016492076
I80
tp4492
a(F2338.13984658125
I80
tp4493
a(F2286.8477219209694
I80
tp4494
a(F2275.4749069950453
I80
tp4495
a(F2356.486836722712
I80
tp4496
a(F2306.8013303682433
I80
tp4497
a(F2358.7297276259887
I80
tp4498
a(F2165.4809446407794
I67
tp4499
a(F2171.4290737608517
I67
tp4500
a(F2165.266285452984
I67
tp4501
a(F2167.266971102398
I67
tp4502
a(F2179.2185143608176
I67
tp4503
a(F2182.1519905117566
I67
tp4504
a(F2168.522590096405
I67
tp4505
a(F2170.5350171951663
I67
tp4506
a(F2189.202742989183
I67
tp4507
a(F2176.079535108935
I67
tp4508
a(F2194.971015776705
I67
tp4509
a(F2178.107017626067
I67
tp4510
a(F2197.745471419819
I67
tp4511
a(F2180.976089696976
I67
tp4512
a(F2201.2924476942676
I67
tp4513
a(F2183.7657683273787
I67
tp4514
a(F2206.7605355015594
I35
tp4515
a(F2209.449506660919
I35
tp4516
a(F2211.9918541025145
I35
tp4517
a(F2214.731523585737
I35
tp4518
a(F2202.9576746145462
I35
tp4519
a(F2217.282300799811
I35
tp4520
a(F2205.8196869644858
I35
tp4521
a(F2209.315023833208
I35
tp4522
a(F2218.3067847122497
I35
tp4523
a(F2216.008025533391
I35
tp4524
a(F2214.2984986790234
I35
tp4525
a(F2212.010040524269
I35
tp4526
a(F2368.5818326438934
I35
tp4527
a(F2367.790082864067
I35
tp4528
a(F2384.6251440359615
I35
tp4529
a(F2417.252434892797
I35
tp4530
a(F2433.973933275967
I35
tp4531
a(F2381.4132629015617
I35
tp4532
a(F2452.0894926815417
I35
tp4533
a(F2407.8401401270676
I35
tp4534
a(F2410.9747452051242
I35
tp4535
a(F2405.8498827950416
I35
tp4536
a(F2413.86618679083
I35
tp4537
a(F2405.331105640219
I35
tp4538
a(F2417.006130897358
I35
tp4539
a(F2406.247253810617
I35
tp4540
a(F2419.625373709694
I35
tp4541
a(F2414.0413724748178
I35
tp4542
a(F2413.54420115567
I35
tp4543
a(F2430.4693974497554
I35
tp4544
a(F2431.2039529635595
I35
tp4545
a(F2415.3272749894913
I35
tp4546
a(F2417.9626208602617
I35
tp4547
a(F2461.8623491109443
I35
tp4548
a(F2434.7537720356113
I35
tp4549
a(F2421.0940461106416
I35
tp4550
a(F2435.682270789932
I35
tp4551
a(F2426.870394998027
I35
tp4552
a(F2404.888614761381
I35
tp4553
a(F2435.1760952881136
I35
tp4554
a(F2433.1960620635646
I35
tp4555
a(F2446.0425352092875
I35
tp4556
a(F2407.880997337101
I35
tp4557
a(F2484.201128639834
I35
tp4558
a(F2481.5813155452765
I35
tp4559
a(F2479.6439848437085
I35
tp4560
a(F2487.106937193047
I35
tp4561
a(F2427.7166398808718
I35
tp4562
a(F2490.932080387179
I35
tp4563
a(F2480.4603405815624
I35
tp4564
a(F2456.3096285395904
I35
tp4565
a(F2482.2506190886525
I35
tp4566
a(F2495.665593284618
I35
tp4567
a(F2482.306832493598
I35
tp4568
a(F2495.084929313986
I35
tp4569
a(F2459.9204669888463
I35
tp4570
a(F2478.6373195582464
I35
tp4571
a(F2484.1086621588033
I35
tp4572
a(F2496.879620576406
I35
tp4573
a(F2496.347365185462
I35
tp4574
a(F2485.0511580838734
I35
tp4575
a(F2484.54079586217
I35
tp4576
a(F2449.7334341854203
I35
tp4577
a(F2497.2831279144143
I35
tp4578
a(F2478.4117145984633
I35
tp4579
a(F2487.2208025023965
I35
tp4580
a(F2496.202143314803
I35
tp4581
a(F2491.0000033627894
I35
tp4582
a(F2494.2360911334486
I35
tp4583
a(F2423.875933503981
I35
tp4584
a(F2492.3014936025975
I35
tp4585
a(F2448.3382639449333
I35
tp4586
a(F2458.976592558968
I35
tp4587
a(F2484.68725971757
I35
tp4588
a(F2548.860528282347
I35
tp4589
a(F2574.8116832649584
I35
tp4590
a(F2582.226324223065
I35
tp4591
a(F2669.144751586898
I35
tp4592
a(F2686.526137730039
I35
tp4593
a(F2709.825931719957
I35
tp4594
a(F2679.9104231016086
I35
tp4595
a(F2467.69481090006
I35
tp4596
a(F1884.8858740399373
I448
tp4597
a(F1929.7212465841956
I448
tp4598
a(F1862.273130951246
I448
tp4599
a(F1888.3204506444106
I448
tp4600
a(F1814.1688066191218
I448
tp4601
a(F1856.0252467804846
I448
tp4602
a(F1832.7646997110596
I448
tp4603
a(F1650.5577920945764
I448
tp4604
a(F1640.4615388844154
I448
tp4605
a(F1606.4092352771977
I464
tp4606
a(F1609.7354336486078
I464
tp4607
a(F1599.0156712852663
I464
tp4608
a(F1602.3347503489622
I464
tp4609
a(F1612.3895923745822
I464
tp4610
a(F1596.6887127833875
I464
tp4611
a(F1611.7982608359741
I464
tp4612
a(F1596.1053478908811
I464
tp4613
a(F1609.4667943601294
I464
tp4614
a(F1655.242621621234
I448
tp4615
a(F1598.7577405035045
I464
tp4616
a(F1601.3292616235647
I464
tp4617
a(F1604.648540737775
I464
tp4618
a(F1446.88930698719
I464
tp4619
a(F1453.1413341426467
I464
tp4620
a(F1438.080603082411
I464
tp4621
a(F1465.5699210729836
I464
tp4622
a(F1436.937671998292
I464
tp4623
a(F1468.1979515064959
I464
tp4624
a(F1438.1300625547995
I464
tp4625
a(F1472.1665665337841
I464
tp4626
a(F1442.085729641574
I464
tp4627
a(F1444.5609516208967
I464
tp4628
a(F1449.810472253484
I464
tp4629
a(F1473.5853551932005
I464
tp4630
a(F1457.2706266825908
I464
tp4631
a(F1460.396937326243
I464
tp4632
a(F1462.89176149976
I464
tp4633
a(F1469.1628147294875
I464
tp4634
a(F1876.8236463635928
I80
tp4635
a(F1834.2727301539435
I80
tp4636
a(F1861.4838360997849
I80
tp4637
a(F1905.3278415414338
I80
tp4638
a(F1936.840216827076
I80
tp4639
a(F1980.328110904426
I80
tp4640
a(F1907.0419613320607
I80
tp4641
a(F1927.2733615379211
I80
tp4642
a(F1969.4543805818487
I80
tp4643
a(F2017.5987860194377
I67
tp4644
a(F2319.063087327902
I80
tp4645
a(F2383.4830139596666
I80
tp4646
a(F2376.1665297914938
I80
tp4647
a(F2067.115993405014
I35
tp4648
a(F2035.4655338900607
I35
tp4649
a(F2433.551474034423
I35
tp4650
a(F2445.725265026296
I35
tp4651
a(F2459.381761687815
I35
tp4652
a(F2417.106799306073
I35
tp4653
a(F2450.167828751788
I35
tp4654
a(F2462.2949665115725
I35
tp4655
a(F2457.094816680102
I35
tp4656
a(F2454.500388303132
I35
tp4657
a(F2500.331237930056
I35
tp4658
a(F2498.319832214167
I35
tp4659
a(F2503.2800657855832
I35
tp4660
a(F2487.663294866213
I35
tp4661
a(F2505.9462212325852
I35
tp4662
a(F2507.752918069456
I35
tp4663
a(F2496.262805878036
I35
tp4664
a(F2508.7020131708496
I35
tp4665
a(F2497.228293719428
I35
tp4666
a(F2496.743774506129
I35
tp4667
a(F2507.1690600530856
I35
tp4668
a(F2490.882479083891
I35
tp4669
a(F2488.325433467076
I35
tp4670
a(F2503.2033016237865
I35
tp4671
a(F2502.256617268323
I35
tp4672
a(F2497.131164982551
I35
tp4673
a(F2492.0208529607276
I35
tp4674
a(F2500.292592140785
I35
tp4675
a(F2495.1759302257797
I35
tp4676
a(F2573.4366395963657
I35
tp4677
a(F2587.5430456385125
I35
tp4678
a(F2604.7782959800993
I35
tp4679
a(F2656.1612031882873
I35
tp4680
a(F2620.192556938476
I35
tp4681
a(F2671.076186362019
I35
tp4682
a(F2690.1636110301038
I35
tp4683
a(F2642.987461390368
I35
tp4684
a(F2678.5725800670943
I35
tp4685
a(F2712.8190017461357
I35
tp4686
a(F2705.7991017748295
I35
tp4687
a(F2732.5750569405163
I35
tp4688
a(F2716.9847894292884
I35
tp4689
a(F2636.049372207615
I35
tp4690
a(F1922.9566843623802
I448
tp4691
a(F1931.9051859788694
I448
tp4692
a(F1845.7153828826565
I448
tp4693
a(F1864.9255857550882
I448
tp4694
a(F1832.5102498178478
I448
tp4695
a(F1828.712632966455
I448
tp4696
a(F1671.4295200857218
I448
tp4697
a(F1658.955581070715
I448
tp4698
a(F1683.641552096062
I448
tp4699
a(F1655.1468932790947
I448
tp4700
a(F1675.3809234595176
I448
tp4701
a(F1905.2671367178677
I80
tp4702
a(F1898.1815966006886
I80
tp4703
a(F1890.9661684326086
I80
tp4704
a(F1921.6607634785921
I80
tp4705
a(F1937.6643803363056
I80
tp4706
a(F1956.526708645262
I67
tp4707
a(F2370.5464054822173
I80
tp4708
a(F2368.6402333122514
I80
tp4709
a(F2400.1376954070015
I80
tp4710
a(F2391.1103456031406
I80
tp4711
a(F2404.4657555275753
I80
tp4712
a(F2028.7086710703527
I67
tp4713
a(F2032.389247108882
I67
tp4714
a(F2057.726816847621
I35
tp4715
a(F2070.4533685796755
I35
tp4716
a(F2462.236017355761
I35
tp4717
a(F2472.4824187988847
I35
tp4718
a(F2493.736532466626
I35
tp4719
a(F2497.2463615875604
I35
tp4720
a(F2494.5259687997013
I35
tp4721
a(F2502.579445659432
I35
tp4722
a(F2496.3450971722814
I35
tp4723
a(F2505.5172457063027
I35
tp4724
a(F2500.129843227809
I35
tp4725
a(F2504.988867183016
I35
tp4726
a(F2503.0677180727844
I35
tp4727
a(F2580.0068652164473
I35
tp4728
a(F2595.195485296233
I35
tp4729
a(F2610.076619435678
I35
tp4730
a(F2665.820787367457
I35
tp4731
a(F2668.878707416714
I35
tp4732
a(F2666.1015177473732
I35
tp4733
a(F2677.456166022949
I35
tp4734
a(F2688.7077855431685
I35
tp4735
a(F2683.5528673921162
I35
tp4736
a(F2672.427641476582
I35
tp4737
a(F2691.992365454943
I35
tp4738
a(F2674.4488280930127
I35
tp4739
a(F2694.859586083493
I35
tp4740
a(F2698.8887819727024
I35
tp4741
a(F2683.0918175373886
I35
tp4742
a(F2701.7671047348504
I35
tp4743
a(F2686.8334599016084
I35
tp4744
a(F2703.792100477279
I35
tp4745
a(F2704.9656856577863
I35
tp4746
a(F2692.6217102029855
I35
tp4747
a(F2709.038912481343
I35
tp4748
a(F2698.7890139560923
I35
tp4749
a(F2702.6776440232097
I35
tp4750
a(F2711.9359616531024
I35
tp4751
a(F2713.9828471240075
I35
tp4752
a(F2708.856358492885
I35
tp4753
a(F2712.084693600535
I35
tp4754
a(F2715.1814916255776
I35
tp4755
a(F1936.6329222058469
I448
tp4756
a(F1960.3507429831932
I448
tp4757
a(F1956.4971423626305
I448
tp4758
a(F1905.591724198445
I448
tp4759
a(F1891.5928833175901
I448
tp4760
a(F1872.4578128905289
I448
tp4761
a(F1921.830929888387
I448
tp4762
a(F1865.5763721296016
I448
tp4763
a(F1903.3581757651248
I448
tp4764
a(F1886.420159781633
I448
tp4765
a(F1870.5154597770745
I448
tp4766
a(F1684.5441918666043
I448
tp4767
a(F1682.2431685691313
I448
tp4768
a(F1691.3096134586094
I448
tp4769
a(F1679.9683721777355
I448
tp4770
a(F1691.9888478691314
I448
tp4771
a(F1679.3609194361736
I448
tp4772
a(F1693.5002717730843
I448
tp4773
a(F1680.705356012026
I448
tp4774
a(F1693.1995905980814
I448
tp4775
a(F1685.0486635748864
I448
tp4776
a(F1687.6886801592025
I448
tp4777
a(F1690.9726511453432
I448
tp4778
a(F1933.5900809976197
I80
tp4779
a(F1935.6407057204929
I80
tp4780
a(F1952.5466848321262
I80
tp4781
a(F1993.3151051730874
I80
tp4782
a(F2016.831491640409
I80
tp4783
a(F1982.8387351996562
I80
tp4784
a(F1982.401339434495
I67
tp4785
a(F2436.775412214045
I80
tp4786
a(F2043.7959272341766
I67
tp4787
a(F2408.87053521649
I80
tp4788
a(F2433.7520275212914
I80
tp4789
a(F2434.5274993317107
I80
tp4790
a(F2426.5535749193696
I80
tp4791
a(F2031.3809294225216
I67
tp4792
a(F2051.053933105541
I35
tp4793
a(F2079.078537969335
I35
tp4794
a(F2086.9451991196556
I35
tp4795
a(F2482.6494709551876
I35
tp4796
a(F2097.2496194144605
I35
tp4797
a(F2486.1634484441815
I35
tp4798
a(F2500.271839052244
I35
tp4799
a(F2495.9307081739025
I35
tp4800
a(F2581.030253132405
I35
tp4801
a(F2583.9637307092985
I35
tp4802
a(F2580.1684355350408
I35
tp4803
a(F2581.243078712677
I35
tp4804
a(F2591.006536566121
I35
tp4805
a(F2584.0089832017493
I35
tp4806
a(F2592.0808683602304
I35
tp4807
a(F2587.001427207787
I35
tp4808
a(F2208.075938096664
I35
tp4809
a(F2206.4705588159254
I35
tp4810
a(F2215.367419977262
I35
tp4811
a(F2210.4985277210003
I35
tp4812
a(F2205.6841742680913
I35
tp4813
a(F2204.09157140458
I35
tp4814
a(F2219.3945098430977
I35
tp4815
a(F2217.754037047771
I35
tp4816
a(F2224.2524869701083
I35
tp4817
a(F2222.6012022656496
I35
tp4818
a(F2205.0395196878717
I35
tp4819
a(F2227.4120885102207
I35
tp4820
a(F2230.053234756812
I35
tp4821
a(F2234.949969485748
I35
tp4822
a(F2208.6938806330054
I35
tp4823
a(F2237.585039864603
I35
tp4824
a(F2240.826888443215
I35
tp4825
a(F2209.6913057821216
I35
tp4826
a(F2248.208630077311
I35
tp4827
a(F2251.079457675655
I35
tp4828
a(F2250.1417348640725
I35
tp4829
a(F2251.054144154051
I35
tp4830
a(F2250.1368142942106
I35
tp4831
a(F2251.028644367162
I35
tp4832
a(F2250.1902807577653
I35
tp4833
a(F2250.0655434812256
I35
tp4834
a(F2220.8039610197698
I35
tp4835
a(F2249.2435375104915
I35
tp4836
a(F2242.718975955907
I35
tp4837
a(F2243.1655571825004
I35
tp4838
a(F2244.448745409237
I35
tp4839
a(F2243.6749562912064
I35
tp4840
a(F2245.5344806315325
I35
tp4841
a(F2247.918890458712
I35
tp4842
a(F2249.789881867351
I35
tp4843
a(F2252.7014464489357
I35
tp4844
a(F2237.608428523878
I35
tp4845
a(F2254.582662335695
I35
tp4846
a(F2239.531754343724
I35
tp4847
a(F2240.1409772354327
I35
tp4848
a(F2264.2225859682417
I35
tp4849
a(F2245.9282446083
I35
tp4850
a(F2245.2178487641454
I35
tp4851
a(F2267.157959448156
I35
tp4852
a(F2269.0694981777683
I35
tp4853
a(F2246.5409231494377
I35
tp4854
a(F2272.0126940316877
I35
tp4855
a(F2248.511796663898
I35
tp4856
a(F2274.4467274959698
I35
tp4857
a(F2251.4543273486865
I35
tp4858
a(F2274.968355490049
I35
tp4859
a(F2252.9162067259285
I35
tp4860
a(F2252.2401214598144
I35
tp4861
a(F2278.8388248231736
I35
tp4862
a(F2279.4390820625367
I35
tp4863
a(F2256.232910741638
I35
tp4864
a(F2256.9189750686946
I35
tp4865
a(F2281.8955198698513
I35
tp4866
a(F2258.93019846845
I35
tp4867
a(F2283.8505947740287
I35
tp4868
a(F2284.466908680694
I35
tp4869
a(F2260.4385209302036
I35
tp4870
a(F2286.9366609578688
I35
tp4871
a(F2262.934497788464
I35
tp4872
a(F2290.8476982777242
I35
tp4873
a(F2290.117138930959
I35
tp4874
a(F2285.5408644855424
I35
tp4875
a(F2279.523141838512
I35
tp4876
a(F2276.5504847574366
I35
tp4877
a(F2273.602090323045
I35
tp4878
a(F2272.137021144922
I35
tp4879
a(F2284.837358940259
I35
tp4880
a(F2281.8295537311938
I35
tp4881
a(F2275.886381879618
I35
tp4882
a(F2271.492759493875
I35
tp4883
a(F2270.0404256684724
I35
tp4884
a(F1985.5458666795444
I448
tp4885
a(F1979.360162336193
I448
tp4886
a(F1982.0755983654005
I448
tp4887
a(F1987.5194913307291
I448
tp4888
a(F1990.2479126509743
I448
tp4889
a(F1994.2266362157093
I448
tp4890
a(F1965.5215947754625
I448
tp4891
a(F1994.522220563664
I448
tp4892
a(F1962.1922137631989
I448
tp4893
a(F1998.5419828697848
I448
tp4894
a(F1955.2934582143039
I448
tp4895
a(F1997.2916759901543
I448
tp4896
a(F1951.9691140426282
I448
tp4897
a(F1948.525462134847
I448
tp4898
a(F1994.114882037916
I448
tp4899
a(F1944.3313726215404
I448
tp4900
a(F1940.8934058757116
I448
tp4901
a(F1987.513876764687
I448
tp4902
a(F1934.3263722053018
I448
tp4903
a(F1983.447286632131
I448
tp4904
a(F1931.1977414784744
I448
tp4905
a(F1980.3508320548142
I448
tp4906
a(F1927.885083896769
I448
tp4907
a(F1921.5771330143943
I448
tp4908
a(F1971.61058146993
I448
tp4909
a(F1959.2720763607163
I448
tp4910
a(F1955.958551225696
I448
tp4911
a(F1903.8082329929712
I448
tp4912
a(F1902.5626725409832
I448
tp4913
a(F1946.545948396361
I448
tp4914
a(F1943.4324748495428
I448
tp4915
a(F1940.198849785978
I448
tp4916
a(F1898.1926931737694
I448
tp4917
a(F1937.091830298286
I448
tp4918
a(F1933.8616387496702
I448
tp4919
a(F1895.6193072101316
I448
tp4920
a(F1930.7611336830591
I448
tp4921
a(F1893.4571414753013
I448
tp4922
a(F1892.258460346865
I448
tp4923
a(F1892.6082463294294
I448
tp4924
a(F1894.6346075258589
I448
tp4925
a(F1917.7272076646182
I448
tp4926
a(F1895.0689401406983
I448
tp4927
a(F1910.758956331391
I448
tp4928
a(F1899.1627957605222
I448
tp4929
a(F1907.4720449204292
I448
tp4930
a(F1965.506133865884
I80
tp4931
a(F1968.363712601114
I80
tp4932
a(F1991.5760627843495
I80
tp4933
a(F1974.1698350183328
I80
tp4934
a(F2021.0508004962776
I80
tp4935
a(F2016.1048886987116
I67
tp4936
a(F2475.22313225805
I80
tp4937
a(F2441.3418529002383
I80
tp4938
a(F2503.399048975836
I80
tp4939
a(F2467.467892025728
I80
tp4940
a(F2513.296293502076
I80
tp4941
a(F2091.0483185891026
I35
tp4942
a(F2140.292068939987
I35
tp4943
a(F2104.9230579829305
I35
tp4944
a(F2110.729163663583
I35
tp4945
a(F2505.653679339055
I35
tp4946
a(F2504.616738528424
I35
tp4947
a(F2515.475069604531
I35
tp4948
a(F2127.5387359153556
I35
tp4949
a(F2125.193564503561
I35
tp4950
a(F2128.336304609324
I35
tp4951
a(F2194.1701938909714
I35
tp4952
a(F2207.473493146842
I35
tp4953
a(F2220.371985267608
I35
tp4954
a(F2198.8645969941526
I35
tp4955
a(F2205.433418399592
I35
tp4956
a(F2239.1510979992054
I35
tp4957
a(F2247.130759703077
I35
tp4958
a(F2236.9867258240383
I35
tp4959
a(F2268.051335273812
I35
tp4960
a(F2278.5505191172433
I35
tp4961
a(F2254.2508267317103
I35
tp4962
a(F2262.6704500185656
I35
tp4963
a(F2274.563442969719
I35
tp4964
a(F2284.281968001046
I35
tp4965
a(F2301.943197820369
I35
tp4966
a(F2017.5299653573022
I80
tp4967
a(F2015.6488650964918
I80
tp4968
a(F2032.988002123581
I80
tp4969
a(F2023.5889675588228
I80
tp4970
a(F2049.744042421629
I80
tp4971
a(F2461.261861475175
I80
tp4972
a(F2456.836348103782
I80
tp4973
a(F2502.7622297800317
I80
tp4974
a(F2065.9287388866182
I67
tp4975
a(F2462.0301968976128
I80
tp4976
a(F2481.207175502421
I80
tp4977
a(F2502.428273176641
I80
tp4978
a(F2532.308650184993
I80
tp4979
a(F2528.4431097636957
I80
tp4980
a(F2098.469864397962
I67
tp4981
a(F2116.451914189719
I35
tp4982
a(F2521.3280117456106
I35
tp4983
a(F2162.0876596422095
I35
tp4984
a(F2168.893373201171
I35
tp4985
a(F2182.3510965994797
I35
tp4986
a(F2172.1954213834874
I35
tp4987
a(F2163.213881698008
I35
tp4988
a(F2176.5708440185317
I35
tp4989
a(F2177.4718583785916
I35
tp4990
a(F2182.020184501047
I35
tp4991
a(F2164.9449598401047
I35
tp4992
a(F2174.041075426361
I35
tp4993
a(F2187.8991313059155
I35
tp4994
a(F2205.7407189746314
I35
tp4995
a(F2192.347857781862
I35
tp4996
a(F2227.1233245792005
I35
tp4997
a(F2210.4467501270997
I35
tp4998
a(F2246.4826555832487
I35
tp4999
a(F2254.370147908768
I35
tp5000
a(F2226.048818000685
I35
tp5001
a(F2256.6205980605423
I35
tp5002
a(F2257.039865079682
I35
tp5003
a(F2280.180887127795
I35
tp5004
a(F2273.2806996540335
I35
tp5005
a(F2293.6115223214506
I35
tp5006
a(F2279.78172662986
I35
tp5007
a(F2306.0254976634956
I35
tp5008
a(F2287.370781729717
I35
tp5009
a(F2301.5121024342716
I35
tp5010
a(F2048.383339129859
I80
tp5011
a(F2087.308035219521
I67
tp5012
a(F2494.009136940878
I80
tp5013
a(F2498.136251387709
I80
tp5014
a(F2488.196540631748
I80
tp5015
a(F2504.6894276420526
I80
tp5016
a(F2489.200019949885
I80
tp5017
a(F2487.2347616854713
I80
tp5018
a(F2046.9978833983362
I67
tp5019
a(F2512.4663601619495
I80
tp5020
a(F2515.7293107971295
I80
tp5021
a(F2486.7119887618264
I80
tp5022
a(F2518.7642584736154
I80
tp5023
a(F2522.0317017274997
I80
tp5024
a(F2487.7332070281386
I80
tp5025
a(F2489.62966850544
I80
tp5026
a(F2531.1004804816635
I80
tp5027
a(F2492.39937528234
I80
tp5028
a(F2495.4286020938653
I80
tp5029
a(F2533.8626640644516
I80
tp5030
a(F2501.946567065049
I80
tp5031
a(F2536.909786284909
I80
tp5032
a(F2504.9272714751482
I80
tp5033
a(F2072.8330676712426
I67
tp5034
a(F2538.792673754228
I80
tp5035
a(F2520.6383671280587
I80
tp5036
a(F2518.004568325881
I80
tp5037
a(F2539.7892087434275
I80
tp5038
a(F2537.7466142804587
I80
tp5039
a(F2532.442365550681
I80
tp5040
a(F2530.460959823329
I80
tp5041
a(F2138.3917865901767
I35
tp5042
a(F2090.2864877604156
I35
tp5043
a(F2176.6101594079155
I35
tp5044
a(F2154.3570430218815
I35
tp5045
a(F2549.426501579793
I35
tp5046
a(F2180.1172327789227
I35
tp5047
a(F2190.8292240087967
I35
tp5048
a(F2172.986517274373
I35
tp5049
a(F2215.493635732006
I35
tp5050
a(F2175.5435790256015
I35
tp5051
a(F2198.373508843079
I35
tp5052
a(F2207.9581975791457
I35
tp5053
a(F2233.8031188249565
I35
tp5054
a(F2225.408189136505
I35
tp5055
a(F2255.894184662003
I35
tp5056
a(F2247.6754788672724
I35
tp5057
a(F2070.393362843707
I80
tp5058
a(F2049.154126402265
I67
tp5059
a(F2110.1801153463794
I67
tp5060
a(F2089.2541349813487
I67
tp5061
a(F2100.9402242709057
I67
tp5062
a(F2135.470888300221
I67
tp5063
a(F2116.7767214018913
I35
tp5064
a(F2166.909768732993
I35
tp5065
a(F2554.4643258355222
I35
tp5066
a(F2548.5216559261
I35
tp5067
a(F2558.329419626777
I35
tp5068
a(F2197.241403068302
I35
tp5069
a(F2177.746896186832
I35
tp5070
a(F2237.6582299670054
I35
tp5071
a(F2092.478022594653
I80
tp5072
a(F2093.84313038362
I67
tp5073
a(F2095.826488495191
I67
tp5074
a(F2123.5894133535885
I67
tp5075
a(F2120.551543353996
I67
tp5076
a(F2102.087424090769
I67
tp5077
a(F2146.650521083151
I67
tp5078
a(F2102.6378929694715
I67
tp5079
a(F2148.3224328195465
I35
tp5080
a(F2549.559024246558
I35
tp5081
a(F2556.046233695391
I35
tp5082
a(F2568.073286646415
I35
tp5083
a(F2233.389779209251
I35
tp5084
a(F2230.8580061463103
I35
tp5085
a(F2105.9270065331602
I80
tp5086
a(F2125.312502297444
I67
tp5087
a(F2108.5551799082623
I67
tp5088
a(F2105.0246279436005
I67
tp5089
a(F2110.9796760580507
I67
tp5090
a(F2141.009546859413
I67
tp5091
a(F2116.0269131553464
I67
tp5092
a(F2119.062564371839
I67
tp5093
a(F2133.5012362184552
I67
tp5094
a(F2126.777944667792
I67
tp5095
a(F2155.0968515672653
I67
tp5096
a(F2185.7004394195824
I35
tp5097
a(F2156.360176595114
I35
tp5098
a(F2188.0097762288096
I35
tp5099
a(F2176.576292998104
I35
tp5100
a(F2578.04325284281
I35
tp5101
a(F2567.9428338628404
I35
tp5102
a(F2556.979339055056
I35
tp5103
a(F2211.1146676437925
I35
tp5104
a(F2198.617852073524
I35
tp5105
a(F2235.1553603752272
I35
tp5106
a(F2237.509430356183
I35
tp5107
a(F2228.162263074157
I35
tp5108
a.