(lp0
(F244.39981711842455
I83
tp1
a(F388.6206439634539
I35
tp2
a(F242.34734280694073
I94
tp3
a(F250.25217915193065
I94
tp4
a(F223.6106363008012
I94
tp5
a(F211.4799225873724
I94
tp6
a(F252.98588853536674
I94
tp7
a(F216.8095488720503
I94
tp8
a(F206.74215881719817
I94
tp9
a(F248.69910778747865
I94
tp10
a(F211.09057115915925
I94
tp11
a(F217.44640377908067
I94
tp12
a(F222.75920956006127
I83
tp13
a(F219.72665325622597
I83
tp14
a(F241.62470234221576
I83
tp15
a(F233.61155388772937
I83
tp16
a(F212.72292533384098
I83
tp17
a(F242.77497574346276
I83
tp18
a(F221.71468694180678
I84
tp19
a(F236.6727551078947
I73
tp20
a(F232.7366675856747
I73
tp21
a(F247.71410136733203
I73
tp22
a(F263.62512483282825
I73
tp23
a(F228.28059858832745
I65
tp24
a(F280.9674747921208
I73
tp25
a(F291.22646261734116
I70
tp26
a(F240.95035322727384
I61
tp27
a(F299.39667306004975
I61
tp28
a(F303.25579442045483
I61
tp29
a(F307.167552751426
I61
tp30
a(F307.9731984722129
I61
tp31
a(F261.0722227215953
I57
tp32
a(F311.232630892053
I57
tp33
a(F328.48673623954005
I57
tp34
a(F268.61138425798197
I57
tp35
a(F283.45600585608264
I58
tp36
a(F287.27758948723056
I58
tp37
a(F345.3921022045428
I38
tp38
a(F346.04305041294424
I32
tp39
a(F344.7687028584498
I32
tp40
a(F286.4545306507577
I38
tp41
a(F345.29187354439523
I32
tp42
a(F341.07852971379725
I32
tp43
a(F287.1135675011362
I32
tp44
a(F283.4296560506413
I35
tp45
a(F285.9196911736616
I35
tp46
a(F336.5643154418316
I35
tp47
a(F293.97595070287883
I35
tp48
a(F343.8600173308327
I35
tp49
a(F362.0113518173596
I35
tp50
a(F298.82219392130503
I35
tp51
a(F309.94080552566584
I35
tp52
a(F383.68940231819954
I35
tp53
a(F397.86636919457885
I35
tp54
a(F398.36313475402113
I35
tp55
a(F395.39691123104444
I35
tp56
a(F321.00119440629925
I35
tp57
a(F400.7114899563558
I35
tp58
a(F329.71148178357515
I35
tp59
a(F401.1377408164518
I35
tp60
a(F392.34794293502244
I35
tp61
a(F389.61346287090043
I35
tp62
a(F341.68277308385143
I35
tp63
a(F346.54561271558657
I35
tp64
a(F358.91077678706677
I35
tp65
a(F398.0124637335224
I35
tp66
a(F421.22616505038053
I35
tp67
a(F412.1018411061159
I35
tp68
a(F374.2686171549125
I35
tp69
a(F431.55380296470076
I35
tp70
a(F381.64251540758937
I35
tp71
a(F451.75671154375635
I35
tp72
a(F459.7337666485122
I35
tp73
a(F394.92800948030145
I28
tp74
a(F470.24242759774273
I31
tp75
a(F401.08488359457414
I28
tp76
a(F416.04387674571393
I20
tp77
a(F473.29109201784945
I20
tp78
a(F469.0038101087934
I20
tp79
a(F457.84775183292425
I20
tp80
a(F440.7554058181775
I20
tp81
a(F446.27546797915596
I20
tp82
a(F229.79009765156954
I94
tp83
a(F236.9417758944942
I94
tp84
a(F206.90308367223525
I94
tp85
a(F230.96319448359793
I94
tp86
a(F221.69512840394938
I94
tp87
a(F202.18410030444116
I94
tp88
a(F209.71931407977607
I89
tp89
a(F207.13701204537477
I83
tp90
a(F207.79780738441713
I83
tp91
a(F222.53103850003546
I83
tp92
a(F213.5166127897369
I83
tp93
a(F230.7999660039801
I94
tp94
a(F229.25326795848022
I94
tp95
a(F213.99604830995273
I94
tp96
a(F213.80292700848207
I94
tp97
a(F217.39134924231533
I94
tp98
a(F229.936875636246
I94
tp99
a(F223.8446445031013
I94
tp100
a(F224.27961313287028
I94
tp101
a(F213.5020804798332
I94
tp102
a(F218.0940639033048
I94
tp103
a(F233.25128292079248
I94
tp104
a(F233.96699256215564
I94
tp105
a(F218.45278067161195
I94
tp106
a(F236.54831053372502
I94
tp107
a(F221.17537918567706
I94
tp108
a(F216.42980548790698
I94
tp109
a(F208.58411674382464
I94
tp110
a(F247.23424704644268
I150
tp111
a(F240.6321189170793
I150
tp112
a(F243.26177563372826
I94
tp113
a(F235.05234324049815
I94
tp114
a(F221.0902656926463
I94
tp115
a(F221.84982456032682
I94
tp116
a(F241.05457530076572
I179
tp117
a(F244.45491674899245
I150
tp118
a(F224.69462649552025
I150
tp119
a(F243.06005166111518
I150
tp120
a(F224.07638439023847
I150
tp121
a(F230.60008385678617
I150
tp122
a(F222.71464802430356
I174
tp123
a(F209.64328989917877
I174
tp124
a(F233.89417856286013
I174
tp125
a(F237.3999670120064
I179
tp126
a(F212.3410352061246
I179
tp127
a(F225.79696311407864
I164
tp128
a(F192.43280228756805
I174
tp129
a(F227.94535653601523
I174
tp130
a(F222.08152698417203
I174
tp131
a(F214.94982084925968
I174
tp132
a(F195.9862408928623
I174
tp133
a(F215.98117702499357
I150
tp134
a(F214.222246226847
I174
tp135
a(F200.00093883058463
I174
tp136
a(F224.9068062828708
I174
tp137
a(F181.36566007982262
I174
tp138
a(F208.20060763146793
I174
tp139
a(F184.71446659857764
I174
tp140
a(F209.34174745543118
I172
tp141
a(F214.15332071423668
I172
tp142
a(F218.9149914341454
I174
tp143
a(F207.1579284665841
I174
tp144
a(F209.23241394046576
I172
tp145
a(F183.36331228382102
I172
tp146
a(F210.94905467007692
I174
tp147
a(F178.32974641365527
I174
tp148
a(F191.86852820788945
I172
tp149
a(F193.31342468766573
I172
tp150
a(F208.23278640326384
I172
tp151
a(F202.04970173086463
I172
tp152
a(F184.1218810511267
I172
tp153
a(F207.9863899038226
I172
tp154
a(F195.0752801951177
I172
tp155
a(F206.3582583667132
I172
tp156
a(F178.94871281073904
I172
tp157
a(F186.25443183889035
I172
tp158
a(F203.91585371169674
I263
tp159
a(F205.42018038453816
I263
tp160
a(F195.28849148256487
I172
tp161
a(F208.12002078951653
I172
tp162
a(F193.00848643841715
I172
tp163
a(F183.05350301517285
I263
tp164
a(F184.40388236904565
I263
tp165
a(F191.2087870255899
I263
tp166
a(F159.20864082525353
I263
tp167
a(F161.53094886756992
I263
tp168
a(F177.23136114635528
I263
tp169
a(F175.87417065892734
I268
tp170
a(F137.7633328259609
I263
tp171
a(F160.83043744144294
I263
tp172
a(F156.25306473062076
I263
tp173
a(F161.8160574125068
I263
tp174
a(F134.06560074373706
I263
tp175
a(F133.72938016421443
I263
tp176
a(F125.00197751685947
I263
tp177
a(F163.35076323654482
I263
tp178
a(F127.62146648397383
I263
tp179
a(F143.55156433818965
I263
tp180
a(F111.26635624399086
I263
tp181
a(F152.87093505035006
I263
tp182
a(F110.37383449458287
I263
tp183
a(F154.80908833625685
I263
tp184
a(F129.52613925367757
I263
tp185
a(F157.04846052487295
I263
tp186
a(F115.9685229149362
I263
tp187
a(F109.2617376844127
I263
tp188
a(F144.94712578425313
I263
tp189
a(F138.2241399799392
I263
tp190
a(F102.30929150661456
I263
tp191
a(F123.53351534598342
I263
tp192
a(F119.26628965058511
I263
tp193
a(F146.5010934600955
I263
tp194
a(F135.9636828721842
I263
tp195
a(F155.48281804514954
I263
tp196
a(F137.36359837125303
I263
tp197
a(F134.86336261184357
I263
tp198
a(F158.78150339565983
I263
tp199
a(F133.91280838637505
I263
tp200
a(F166.85214421033257
I263
tp201
a(F156.05492076209768
I263
tp202
a(F172.16080358782438
I263
tp203
a(F180.22831045259505
I263
tp204
a(F180.4462909157308
I263
tp205
a(F127.2076058000712
I263
tp206
a(F175.52800927656313
I263
tp207
a(F173.5314550848852
I263
tp208
a(F183.7457822180573
I263
tp209
a(F172.98732761431157
I263
tp210
a(F196.47773741878422
I263
tp211
a(F179.86099536880042
I263
tp212
a(F199.314881000464
I263
tp213
a(F203.49075806220603
I263
tp214
a(F163.55689532410986
I263
tp215
a(F182.39894530606088
I263
tp216
a(F188.62834420159422
I263
tp217
a(F183.99420533734215
I263
tp218
a(F220.34158909284247
I263
tp219
a(F206.25134948968983
I263
tp220
a(F225.6403803547672
I263
tp221
a(F197.01704651198523
I263
tp222
a(F231.2804251587685
I263
tp223
a(F204.47232439227432
I263
tp224
a(F221.91212643897472
I263
tp225
a(F210.41563883367073
I263
tp226
a(F209.5680884301644
I263
tp227
a(F226.69150881791634
I263
tp228
a(F218.5086142583065
I263
tp229
a(F239.5618898765039
I263
tp230
a(F242.5993006571014
I263
tp231
a(F233.41248769061838
I263
tp232
a(F241.6474250162881
I312
tp233
a(F253.07216611162843
I263
tp234
a(F234.29443279481083
I312
tp235
a(F260.73086381163233
I308
tp236
a(F255.53734001074815
I312
tp237
a(F273.9053597313761
I312
tp238
a(F244.5662009827778
I308
tp239
a(F269.42775418449975
I312
tp240
a(F259.6897228323063
I312
tp241
a(F278.5357466136073
I312
tp242
a(F284.8579280312543
I312
tp243
a(F291.8767384581177
I312
tp244
a(F302.17380534831943
I312
tp245
a(F273.08771185890254
I312
tp246
a(F268.9049050089871
I312
tp247
a(F319.2786141157647
I312
tp248
a(F296.12170230320885
I312
tp249
a(F269.79589353880743
I312
tp250
a(F323.0970234298149
I312
tp251
a(F314.4323611174393
I312
tp252
a(F296.3258894811389
I312
tp253
a(F299.13014819294966
I351
tp254
a(F292.77044788605735
I312
tp255
a(F310.5356127217888
I351
tp256
a(F332.3983541155603
I312
tp257
a(F316.1705711649901
I312
tp258
a(F285.99001578254894
I386
tp259
a(F298.94126280481424
I386
tp260
a(F317.8979369602169
I376
tp261
a(F300.99143072419974
I351
tp262
a(F321.5384694966118
I351
tp263
a(F322.91726828833555
I312
tp264
a(F292.0601170990127
I386
tp265
a(F297.7769230277743
I386
tp266
a(F291.0366014917866
I386
tp267
a(F300.24903269101304
I386
tp268
a(F303.36952676214696
I386
tp269
a(F290.8372111540904
I386
tp270
a(F306.65981818276913
I386
tp271
a(F291.92579221420124
I386
tp272
a(F293.63285803855297
I386
tp273
a(F307.7444213237488
I386
tp274
a(F309.4579390093087
I386
tp275
a(F309.4611542793198
I386
tp276
a(F308.63473138305255
I386
tp277
a(F306.6760408768331
I386
tp278
a(F298.99666685749025
I386
tp279
a(F302.19297630469345
I386
tp280
a(F299.26069936348154
I391
tp281
a(F295.7835188368684
I391
tp282
a(F302.00167400449965
I391
tp283
a(F305.01398591461356
I391
tp284
a(F307.9136474947482
I391
tp285
a(F292.2806383555368
I391
tp286
a(F309.22289166800067
I391
tp287
a(F292.8974611114273
I391
tp288
a(F292.5378044963079
I391
tp289
a(F310.516825739798
I391
tp290
a(F293.2495835078373
I391
tp291
a(F294.67151312184905
I391
tp292
a(F295.4729290705327
I391
tp293
a(F309.81973768874064
I391
tp294
a(F297.80950836653966
I391
tp295
a(F308.73199567508397
I391
tp296
a(F299.32003890738764
I391
tp297
a(F301.70637572235705
I391
tp298
a(F304.49430547962646
I391
tp299
a(F297.0009417700611
I391
tp300
a(F310.40337772878223
I391
tp301
a(F294.51607538874197
I391
tp302
a(F300.9797628390885
I391
tp303
a(F317.17499963430896
I391
tp304
a(F313.9956934155244
I391
tp305
a(F289.62961716240335
I391
tp306
a(F301.46685375328866
I391
tp307
a(F326.2228717669137
I391
tp308
a(F294.05576022656294
I396
tp309
a(F283.32166733959446
I396
tp310
a(F296.13431498403077
I391
tp311
a(F324.7311317136039
I391
tp312
a(F294.2760507995333
I396
tp313
a(F303.26267839673034
I391
tp314
a(F325.11857659218765
I391
tp315
a(F322.2809494580352
I396
tp316
a(F336.14271244704844
I396
tp317
a(F340.61688419089865
I391
tp318
a(F317.90024433846946
I391
tp319
a(F333.9690385834037
I391
tp320
a(F327.52344140270384
I396
tp321
a(F310.88743022235053
I396
tp322
a(F354.2212678447152
I396
tp323
a(F323.54354387767404
I396
tp324
a(F354.809081485452
I396
tp325
a(F366.9986806619929
I396
tp326
a(F334.5642822458607
I414
tp327
a(F382.37774464328504
I396
tp328
a(F337.2695974517493
I396
tp329
a(F355.18500095418074
I396
tp330
a(F351.19478790259564
I396
tp331
a(F370.679679096144
I396
tp332
a(F356.31482575321667
I414
tp333
a(F364.32379896388505
I396
tp334
a(F378.7534206995391
I396
tp335
a(F396.2830734251528
I414
tp336
a(F376.2368398792793
I414
tp337
a(F396.3692148176949
I414
tp338
a(F381.52176201986026
I414
tp339
a(F400.1236465210474
I396
tp340
a(F384.6618330770392
I396
tp341
a(F422.56305732320016
I414
tp342
a(F392.1260009918692
I414
tp343
a(F417.9579663043854
I414
tp344
a(F444.29657017014466
I414
tp345
a(F432.0338126605034
I414
tp346
a(F424.8476746472219
I414
tp347
a(F414.7038939285437
I414
tp348
a(F418.307605800135
I414
tp349
a(F436.34218540620753
I414
tp350
a(F446.1057581140063
I414
tp351
a(F447.34566802136555
I414
tp352
a(F463.6387135733712
I414
tp353
a(F440.64418405579164
I414
tp354
a(F458.7675601127669
I414
tp355
a(F470.2609531013721
I414
tp356
a(F459.6075943219535
I414
tp357
a(F466.6659985001562
I414
tp358
a(F449.62504521436693
I414
tp359
a(F478.9992070797478
I414
tp360
a(F465.76167267091324
I414
tp361
a(F489.4634538369306
I414
tp362
a(F504.0679951007632
I414
tp363
a(F485.0960401825295
I414
tp364
a(F505.48720677802663
I414
tp365
a(F503.66489513539284
I414
tp366
a(F487.8425019645596
I414
tp367
a(F506.788337426004
I414
tp368
a(F515.179745426943
I414
tp369
a(F508.70875601684907
I414
tp370
a(F542.6722596697922
I414
tp371
a(F533.3384930532021
I414
tp372
a(F530.5326092054091
I414
tp373
a(F526.560647510919
I414
tp374
a(F536.4633839520504
I414
tp375
a(F526.1680588795925
I414
tp376
a(F563.2471023183288
I461
tp377
a(F572.0834253520856
I438
tp378
a(F546.2699092270261
I461
tp379
a(F537.094919435939
I438
tp380
a(F556.0965692186638
I414
tp381
a(F594.7474629676922
I461
tp382
a(F559.2707625418651
I461
tp383
a(F571.1387151517612
I438
tp384
a(F545.4476687554734
I414
tp385
a(F586.4930171618166
I461
tp386
a(F586.3244125933214
I438
tp387
a(F571.9891470934318
I461
tp388
a(F609.3880618972505
I461
tp389
a(F583.0450096448425
I461
tp390
a(F616.3611028542264
I461
tp391
a(F621.297439656998
I461
tp392
a(F597.3137042717431
I461
tp393
a(F595.164853147615
I461
tp394
a(F591.4668232855754
I461
tp395
a(F632.326943631956
I461
tp396
a(F651.6299463454643
I461
tp397
a(F634.5403521122943
I461
tp398
a(F658.7638705342976
I461
tp399
a(F645.8272452437964
I461
tp400
a(F648.7839882403164
I461
tp401
a(F621.706541038673
I461
tp402
a(F628.8513706807113
I461
tp403
a(F693.3154211685235
I461
tp404
a(F662.2432440920462
I461
tp405
a(F689.8228836695882
I461
tp406
a(F678.0797442447113
I461
tp407
a(F665.0777750597309
I461
tp408
a(F604.9972278048904
I461
tp409
a(F678.9619606675514
I461
tp410
a(F714.0654656293831
I461
tp411
a(F659.4207035170886
I461
tp412
a(F652.2098595743911
I461
tp413
a(F648.8921334527488
I461
tp414
a(F618.880303267084
I461
tp415
a(F652.0590187841487
I461
tp416
a(F727.2316997815152
I461
tp417
a(F703.0155078673281
I461
tp418
a(F709.1629466415294
I461
tp419
a(F739.5842811486177
I461
tp420
a(F681.4002040741987
I461
tp421
a(F727.6531575976114
I461
tp422
a(F709.2285438795249
I461
tp423
a(F666.3312553653348
I461
tp424
a(F647.0492742640121
I461
tp425
a(F709.7912189435822
I461
tp426
a(F655.1798342162223
I461
tp427
a(F644.309170902228
I461
tp428
a(F645.7321875022494
I461
tp429
a(F649.8086373688783
I461
tp430
a(F663.6846195894457
I461
tp431
a(F762.8270086987665
I461
tp432
a(F678.3933166053025
I461
tp433
a(F665.9746532187409
I461
tp434
a(F674.2398796346666
I461
tp435
a(F656.4466609262479
I461
tp436
a(F654.0089569059588
I461
tp437
a(F652.007073967162
I461
tp438
a(F659.1020294532709
I461
tp439
a(F659.7702213689402
I461
tp440
a(F650.93589578331
I461
tp441
a(F661.2016060546287
I461
tp442
a(F651.6348285974441
I461
tp443
a(F660.5339565784792
I461
tp444
a(F652.9639997696812
I461
tp445
a(F654.4781387970268
I461
tp446
a(F752.6662001501469
I461
tp447
a(F746.3915394221301
I461
tp448
a(F745.0999073903133
I461
tp449
a(F690.0934192191683
I461
tp450
a(F681.7660824488228
I461
tp451
a(F701.4283344569853
I461
tp452
a(F793.0146554119206
I461
tp453
a(F774.177210987435
I461
tp454
a(F782.4642505857928
I461
tp455
a(F714.878664474953
I461
tp456
a(F694.3841516812244
I461
tp457
a(F737.1480028015486
I461
tp458
a(F713.4673437722724
I461
tp459
a(F779.5312113241973
I461
tp460
a(F817.8845462002583
I461
tp461
a(F774.0817906238449
I461
tp462
a(F742.7803042120601
I461
tp463
a(F742.4949222753814
I461
tp464
a(F817.6129513393699
I461
tp465
a(F801.6166117884662
I461
tp466
a(F804.2901538606159
I461
tp467
a(F776.2001076519778
I461
tp468
a(F775.2460731651479
I461
tp469
a(F790.7259364382846
I461
tp470
a(F856.5794316791024
I461
tp471
a(F846.8320145263284
I461
tp472
a(F821.3578116102275
I461
tp473
a(F808.9365155386283
I461
tp474
a(F825.2846074325516
I461
tp475
a(F829.4336178025092
I461
tp476
a(F849.4821474690654
I461
tp477
a(F887.8260100032102
I461
tp478
a(F843.8130589131542
I461
tp479
a(F896.1190368272437
I461
tp480
a(F866.7558212939354
I461
tp481
a(F866.9964522096515
I461
tp482
a(F929.2371350421483
I461
tp483
a(F887.6637256858791
I461
tp484
a(F923.2950835161954
I461
tp485
a(F896.2617161828911
I461
tp486
a(F925.2034752090192
I461
tp487
a(F867.0216233088389
I461
tp488
a(F860.1444414350817
I461
tp489
a(F955.2492778139529
I461
tp490
a(F953.030148600728
I461
tp491
a(F958.7299987735801
I461
tp492
a(F924.0274217330184
I461
tp493
a(F923.6189080810606
I461
tp494
a(F890.8613737506191
I461
tp495
a(F894.7402717353681
I461
tp496
a(F985.9642446315223
I461
tp497
a(F960.4464544660825
I461
tp498
a(F993.8342993708636
I461
tp499
a(F982.6833639279861
I461
tp500
a(F937.9455199881161
I461
tp501
a(F957.4144789183257
I461
tp502
a(F1005.1273797721344
I461
tp503
a(F996.4510681611936
I461
tp504
a(F1006.2919013060747
I461
tp505
a(F978.1347926598862
I461
tp506
a(F961.6548434716249
I461
tp507
a(F1009.0910365015791
I461
tp508
a(F980.2223434238946
I461
tp509
a(F1039.9913158087368
I461
tp510
a(F1021.3752780665055
I461
tp511
a(F1000.9061610248378
I461
tp512
a(F1024.0238320786602
I461
tp513
a(F1001.3880697653393
I461
tp514
a(F1016.1062667919056
I461
tp515
a(F1068.5411618876212
I461
tp516
a(F1047.7522932761258
I461
tp517
a(F1048.1021438047294
I461
tp518
a(F1035.0485462303623
I461
tp519
a(F1058.0826930183364
I461
tp520
a(F1032.8099988685015
I461
tp521
a(F1111.0953319640785
I461
tp522
a(F1095.6100120317617
I461
tp523
a(F1112.4905201673869
I461
tp524
a(F1097.0600018496375
I461
tp525
a(F1051.2801894380978
I461
tp526
a(F1080.9692401736538
I461
tp527
a(F1058.133749848865
I461
tp528
a(F1123.3629156998788
I461
tp529
a(F1111.048586638657
I461
tp530
a(F1137.5587946076648
I461
tp531
a(F1131.4823951898152
I461
tp532
a(F1076.9097601368976
I461
tp533
a(F1087.4814877611414
I461
tp534
a(F1105.8919497533739
I461
tp535
a(F1152.5282087260941
I461
tp536
a(F1136.3281440066507
I461
tp537
a(F1158.9530386625906
I461
tp538
a(F1112.9435683979548
I461
tp539
a(F1122.9212566018905
I461
tp540
a(F1188.0074778362202
I461
tp541
a(F1179.7373721418087
I461
tp542
a(F1165.0318468500516
I461
tp543
a(F1183.7608966792263
I461
tp544
a(F1173.9346081566193
I461
tp545
a(F1156.5792887911437
I461
tp546
a(F1144.6437066858193
I461
tp547
a(F1146.1298246709234
I461
tp548
a(F1224.9263292443698
I461
tp549
a(F1194.9536562728847
I461
tp550
a(F1190.5045909065846
I461
tp551
a(F1183.2902449310645
I461
tp552
a(F1179.0958477959273
I461
tp553
a(F1223.9085543594974
I461
tp554
a(F1237.45090558922
I461
tp555
a(F1183.3687125073138
I461
tp556
a(F1229.7692682415945
I461
tp557
a(F1219.3420170107102
I461
tp558
a(F1218.2619903424797
I461
tp559
a(F1206.1046621547894
I461
tp560
a(F1255.1541577483624
I461
tp561
a(F1244.4913553044917
I461
tp562
a(F1224.0540884965476
I461
tp563
a(F1201.4284477933672
I461
tp564
a(F1204.6727573237445
I461
tp565
a(F1236.3386801612064
I461
tp566
a(F1219.3524307191403
I461
tp567
a(F1219.8594536686403
I461
tp568
a(F1234.7750567175265
I461
tp569
a(F1219.152647233345
I461
tp570
a(F1229.7032668790666
I461
tp571
a(F1216.9902555839017
I461
tp572
a(F1229.950128204926
I461
tp573
a(F1224.9088820946333
I461
tp574
a(F1215.8417443712976
I461
tp575
a(F1219.1864128478278
I461
tp576
a(F1234.1000574550228
I461
tp577
a(F1274.1403812572682
I461
tp578
a(F1257.9136097868038
I461
tp579
a(F1229.3572476541162
I461
tp580
a(F1259.936800850838
I461
tp581
a(F1215.1650260094902
I461
tp582
a(F1224.1558046962243
I461
tp583
a(F1250.4182973833197
I461
tp584
a(F1228.7411668066786
I461
tp585
a(F1230.9910832590583
I461
tp586
a(F1241.141477430487
I461
tp587
a(F1241.9132353920204
I461
tp588
a(F1238.1080807372352
I461
tp589
a(F1234.9365103600944
I461
tp590
a(F1233.5796030929014
I461
tp591
a(F1228.0660692027107
I461
tp592
a(F1221.206508267825
I461
tp593
a(F1245.441050357782
I461
tp594
a(F1243.001759669512
I461
tp595
a(F1211.2106348464838
I461
tp596
a(F1236.737732553204
I461
tp597
a(F1199.1487804501592
I461
tp598
a(F1225.8781338306953
I461
tp599
a(F1210.0803363142725
I461
tp600
a(F1194.562465205031
I461
tp601
a(F1274.3203995631623
I461
tp602
a(F1277.8283995523707
I461
tp603
a(F1241.6223138489966
I461
tp604
a(F1230.630706051156
I461
tp605
a(F1254.6614087756018
I461
tp606
a(F1241.5641265868726
I461
tp607
a(F1246.1756004194503
I461
tp608
a(F1253.021207795685
I461
tp609
a(F1239.8693014696294
I461
tp610
a(F1249.5586264726887
I461
tp611
a(F1229.8753947469718
I461
tp612
a(F1263.1271791662093
I461
tp613
a(F1216.0248736578008
I461
tp614
a(F1259.847809612287
I461
tp615
a(F1204.8600239471998
I461
tp616
a(F1213.7261808358162
I461
tp617
a(F1248.696920209712
I461
tp618
a(F1222.355292849354
I461
tp619
a(F1299.9481008450318
I454
tp620
a(F1272.9130872129608
I461
tp621
a(F1301.0363264027192
I461
tp622
a(F1294.0455543388825
I461
tp623
a(F1267.3222328000643
I461
tp624
a(F1251.4933952453925
I461
tp625
a(F1263.8097182930876
I461
tp626
a(F1241.3518560083348
I461
tp627
a(F1263.22375489189
I461
tp628
a(F1266.755445250826
I461
tp629
a(F1249.5610052922939
I461
tp630
a(F1308.489129426589
I461
tp631
a(F1303.3641351836113
I454
tp632
a(F1305.462677627616
I454
tp633
a(F1271.880348307301
I461
tp634
a(F1305.1071903991692
I461
tp635
a(F1256.8795715317692
I461
tp636
a(F1290.3900899952864
I461
tp637
a(F1285.080172143223
I461
tp638
a(F1230.3345206237645
I461
tp639
a(F1219.4231977935656
I461
tp640
a(F1233.418358144546
I461
tp641
a(F1330.0820075329964
I454
tp642
a(F1318.7549361503106
I454
tp643
a(F1326.7907450901812
I454
tp644
a(F1339.2096282638781
I454
tp645
a(F1318.9168033688406
I454
tp646
a(F1278.4149637820333
I461
tp647
a(F1279.1349407258183
I461
tp648
a(F1260.225363593782
I461
tp649
a(F1247.1090401545628
I461
tp650
a(F1294.6401415074147
I461
tp651
a(F1279.1859157491656
I461
tp652
a(F1265.9091235613714
I461
tp653
a(F1248.5024298887888
I461
tp654
a(F1344.6299436968998
I454
tp655
a(F1356.4826499399023
I454
tp656
a(F1342.0178324032538
I454
tp657
a(F1355.2394775486384
I454
tp658
a(F1320.6844368587654
I454
tp659
a(F1291.6009428349842
I461
tp660
a(F1288.9959242000032
I461
tp661
a(F1286.778147698437
I461
tp662
a(F1294.45830132462
I461
tp663
a(F1284.6781339651657
I461
tp664
a(F1283.618109810009
I461
tp665
a(F1296.0545984387463
I461
tp666
a(F1295.9461045214111
I461
tp667
a(F1282.71687245246
I461
tp668
a(F1294.9323726620707
I461
tp669
a(F1281.302504134063
I461
tp670
a(F1293.5189917408327
I461
tp671
a(F1281.8519869790819
I461
tp672
a(F1291.4516206533717
I461
tp673
a(F1281.757114359901
I461
tp674
a(F1283.226772390687
I461
tp675
a(F1288.6560258425134
I461
tp676
a(F1286.4345540019594
I461
tp677
a(F1283.8034735901833
I461
tp678
a(F1372.9180769568225
I454
tp679
a(F1356.2067491906787
I454
tp680
a(F1366.730140066092
I454
tp681
a(F1346.2348480220007
I454
tp682
a(F1338.1278654839923
I454
tp683
a(F1358.2941216585702
I454
tp684
a(F1380.8199040404613
I454
tp685
a(F1376.1819186970692
I454
tp686
a(F1403.2350028194896
I454
tp687
a(F1371.7592238005343
I454
tp688
a(F1368.6714202054613
I454
tp689
a(F1368.873825695121
I454
tp690
a(F1371.2282731232747
I454
tp691
a(F1365.5714416056778
I454
tp692
a(F1404.6264738389802
I454
tp693
a(F1395.8279547836378
I454
tp694
a(F1387.2551341132146
I454
tp695
a(F1388.304678635605
I454
tp696
a(F1421.8903421197142
I447
tp697
a(F1403.257998218072
I454
tp698
a(F1419.9390665113804
I454
tp699
a(F1411.06165788335
I454
tp700
a(F1445.9080235589831
I447
tp701
a(F1427.2255591050352
I447
tp702
a(F1439.3630083319126
I447
tp703
a(F1423.3790215680563
I454
tp704
a(F1434.9069636598038
I454
tp705
a(F1425.106068894638
I454
tp706
a(F1464.7878440242714
I447
tp707
a(F1450.4950732474476
I447
tp708
a(F1462.637760434187
I447
tp709
a(F1448.8203327788867
I454
tp710
a(F1435.601429872668
I447
tp711
a.